Archive member included because of file (symbol)

/usr/local/ps3dev/libpsl1ght/ppu/lib/librsx.a(init.o)
                              rsxutil.o (rsxInit)
/usr/local/ps3dev/libpsl1ght/ppu/lib/librsx.a(buffer.o)
                              rsxutil.o (rsxFlushBuffer)
/usr/local/ps3dev/libpsl1ght/ppu/lib/librsx.a(commands.o)
                              /usr/local/ps3dev/libpsl1ght/ppu/lib/librsx.a(buffer.o) (rsxSetJumpCommand)
/usr/local/ps3dev/libpsl1ght/ppu/lib/librsx.a(mm.o)
                              /usr/local/ps3dev/libpsl1ght/ppu/lib/librsx.a(init.o) (rsxHeapInit)
/usr/local/ps3dev/libpsl1ght/ppu/lib/librsx.a(vertex_program.o)
                              /usr/local/ps3dev/libpsl1ght/ppu/lib/librsx.a(commands.o) (rsxVertexProgramGetConsts)
/usr/local/ps3dev/libpsl1ght/ppu/lib/librsx.a(fragment_program.o)
                              /usr/local/ps3dev/libpsl1ght/ppu/lib/librsx.a(commands.o) (rsxFragmentProgramGetConsts)
/usr/local/ps3dev/libpsl1ght/ppu/lib/libgcm_sys.a(sprx.o)
                              rsxutil.o (gcmSetFlip)
/usr/local/ps3dev/libpsl1ght/ppu/lib/libio.a(sprx.o)
                              main.o (ioPadInit)
/usr/local/ps3dev/libpsl1ght/ppu/lib/libsysutil.a(sprx.o)
                              rsxutil.o (videoConfigure)
/usr/local/ps3dev/libpsl1ght/ppu/lib/libsysutil.a(sysutil_wrapper.o)
                              main.o (sysUtilRegisterCallback)
/usr/local/ps3dev/libpsl1ght/ppu/lib/librt.a(sbrk.o)
                              /usr/local/ps3dev/ppu/lib/gcc/powerpc64-ps3-elf/4.5.2/../../../../powerpc64-ps3-elf/lib/lv2-crt0.o (__librt_sbrk_r)
/usr/local/ps3dev/libpsl1ght/ppu/lib/librt.a(exit.o)
                              /usr/local/ps3dev/ppu/lib/gcc/powerpc64-ps3-elf/4.5.2/../../../../powerpc64-ps3-elf/lib/lv2-crt0.o (__librt_exit)
/usr/local/ps3dev/libpsl1ght/ppu/lib/librt.a(close.o)
                              /usr/local/ps3dev/ppu/lib/gcc/powerpc64-ps3-elf/4.5.2/../../../../powerpc64-ps3-elf/lib/lv2-crt0.o (__librt_close_r)
/usr/local/ps3dev/libpsl1ght/ppu/lib/librt.a(lseek.o)
                              /usr/local/ps3dev/ppu/lib/gcc/powerpc64-ps3-elf/4.5.2/../../../../powerpc64-ps3-elf/lib/lv2-crt0.o (__librt_lseek_r)
/usr/local/ps3dev/libpsl1ght/ppu/lib/librt.a(read.o)
                              /usr/local/ps3dev/ppu/lib/gcc/powerpc64-ps3-elf/4.5.2/../../../../powerpc64-ps3-elf/lib/lv2-crt0.o (__librt_read_r)
/usr/local/ps3dev/libpsl1ght/ppu/lib/librt.a(open.o)
                              /usr/local/ps3dev/ppu/lib/gcc/powerpc64-ps3-elf/4.5.2/../../../../powerpc64-ps3-elf/lib/lv2-crt0.o (__librt_open_r)
/usr/local/ps3dev/libpsl1ght/ppu/lib/librt.a(sleep.o)
                              /usr/local/ps3dev/ppu/lib/gcc/powerpc64-ps3-elf/4.5.2/../../../../powerpc64-ps3-elf/lib/lv2-crt0.o (__librt_usleep_r)
/usr/local/ps3dev/libpsl1ght/ppu/lib/librt.a(write.o)
                              /usr/local/ps3dev/ppu/lib/gcc/powerpc64-ps3-elf/4.5.2/../../../../powerpc64-ps3-elf/lib/lv2-crt0.o (__librt_write_r)
/usr/local/ps3dev/libpsl1ght/ppu/lib/librt.a(fstat.o)
                              /usr/local/ps3dev/ppu/lib/gcc/powerpc64-ps3-elf/4.5.2/../../../../powerpc64-ps3-elf/lib/lv2-crt0.o (__librt_fstat_r)
/usr/local/ps3dev/libpsl1ght/ppu/lib/librt.a(socket.o)
                              /usr/local/ps3dev/libpsl1ght/ppu/lib/librt.a(write.o) (send)
/usr/local/ps3dev/libpsl1ght/ppu/lib/librt.a(lock.o)
                              /usr/local/ps3dev/ppu/lib/gcc/powerpc64-ps3-elf/4.5.2/../../../../powerpc64-ps3-elf/lib/lv2-crt0.o (__librt_sys_lwmutex_create_r)
/usr/local/ps3dev/libpsl1ght/ppu/lib/librt.a(dirent.o)
                              /usr/local/ps3dev/ppu/lib/gcc/powerpc64-ps3-elf/4.5.2/../../../../powerpc64-ps3-elf/lib/lv2-crt0.o (__librt_opendir_r)
/usr/local/ps3dev/libpsl1ght/ppu/lib/librt.a(mkdir.o)
                              /usr/local/ps3dev/ppu/lib/gcc/powerpc64-ps3-elf/4.5.2/../../../../powerpc64-ps3-elf/lib/lv2-crt0.o (__librt_mkdir_r)
/usr/local/ps3dev/libpsl1ght/ppu/lib/librt.a(times.o)
                              /usr/local/ps3dev/ppu/lib/gcc/powerpc64-ps3-elf/4.5.2/../../../../powerpc64-ps3-elf/lib/lv2-crt0.o (__librt_times_r)
/usr/local/ps3dev/libpsl1ght/ppu/lib/librt.a(umask.o)
                              /usr/local/ps3dev/ppu/lib/gcc/powerpc64-ps3-elf/4.5.2/../../../../powerpc64-ps3-elf/lib/lv2-crt0.o (__librt_umask_r)
/usr/local/ps3dev/libpsl1ght/ppu/lib/librt.a(lv2errno.o)
                              /usr/local/ps3dev/libpsl1ght/ppu/lib/librt.a(socket.o) (lv2errno)
/usr/local/ps3dev/libpsl1ght/ppu/lib/librt.a(heap.o)
                              /usr/local/ps3dev/libpsl1ght/ppu/lib/librsx.a(mm.o) (heapInit)
/usr/local/ps3dev/libpsl1ght/ppu/lib/librt.a(chmod.o)
                              /usr/local/ps3dev/ppu/lib/gcc/powerpc64-ps3-elf/4.5.2/../../../../powerpc64-ps3-elf/lib/lv2-crt0.o (__librt_chmod_r)
/usr/local/ps3dev/libpsl1ght/ppu/lib/librt.a(rmdir.o)
                              /usr/local/ps3dev/ppu/lib/gcc/powerpc64-ps3-elf/4.5.2/../../../../powerpc64-ps3-elf/lib/lv2-crt0.o (__librt_rmdir_r)
/usr/local/ps3dev/libpsl1ght/ppu/lib/librt.a(isatty.o)
                              /usr/local/ps3dev/ppu/lib/gcc/powerpc64-ps3-elf/4.5.2/../../../../powerpc64-ps3-elf/lib/lv2-crt0.o (__librt_isatty_r)
/usr/local/ps3dev/libpsl1ght/ppu/lib/librt.a(gettod.o)
                              /usr/local/ps3dev/ppu/lib/gcc/powerpc64-ps3-elf/4.5.2/../../../../powerpc64-ps3-elf/lib/lv2-crt0.o (__librt_gettod_r)
/usr/local/ps3dev/libpsl1ght/ppu/lib/librt.a(settod.o)
                              /usr/local/ps3dev/ppu/lib/gcc/powerpc64-ps3-elf/4.5.2/../../../../powerpc64-ps3-elf/lib/lv2-crt0.o (__librt_settod_r)
/usr/local/ps3dev/libpsl1ght/ppu/lib/liblv2.a(sprx.o)
                              /usr/local/ps3dev/libpsl1ght/ppu/lib/librt.a(sbrk.o) (sysSpinlockInitialize)
/usr/local/ps3dev/ppu/lib/gcc/powerpc64-ps3-elf/4.5.2/../../../../powerpc64-ps3-elf/lib/libsysbase.a(syscalls.o)
                              /usr/local/ps3dev/ppu/lib/gcc/powerpc64-ps3-elf/4.5.2/../../../../powerpc64-ps3-elf/lib/lv2-crt0.o (__syscalls)
/usr/local/ps3dev/ppu/lib/gcc/powerpc64-ps3-elf/4.5.2/../../../../powerpc64-ps3-elf/lib/libsysbase.a(sleep.o)
                              rsxutil.o (usleep)
/usr/local/ps3dev/ppu/lib/gcc/powerpc64-ps3-elf/4.5.2/../../../../powerpc64-ps3-elf/lib/libc.a(lib_a-atexit.o)
                              main.o (atexit)
/usr/local/ps3dev/ppu/lib/gcc/powerpc64-ps3-elf/4.5.2/../../../../powerpc64-ps3-elf/lib/libc.a(lib_a-errno.o)
                              /usr/local/ps3dev/libpsl1ght/ppu/lib/librt.a(socket.o) (__errno)
/usr/local/ps3dev/ppu/lib/gcc/powerpc64-ps3-elf/4.5.2/../../../../powerpc64-ps3-elf/lib/libc.a(lib_a-exit.o)
                              /usr/local/ps3dev/ppu/lib/gcc/powerpc64-ps3-elf/4.5.2/../../../../powerpc64-ps3-elf/lib/lv2-crt0.o (exit)
/usr/local/ps3dev/ppu/lib/gcc/powerpc64-ps3-elf/4.5.2/../../../../powerpc64-ps3-elf/lib/libc.a(lib_a-getreent.o)
                              /usr/local/ps3dev/ppu/lib/gcc/powerpc64-ps3-elf/4.5.2/../../../../powerpc64-ps3-elf/lib/libsysbase.a(sleep.o) (__getreent)
/usr/local/ps3dev/ppu/lib/gcc/powerpc64-ps3-elf/4.5.2/../../../../powerpc64-ps3-elf/lib/libc.a(lib_a-impure.o)
                              /usr/local/ps3dev/ppu/lib/gcc/powerpc64-ps3-elf/4.5.2/../../../../powerpc64-ps3-elf/lib/libc.a(lib_a-exit.o) (_global_impure_ptr)
/usr/local/ps3dev/ppu/lib/gcc/powerpc64-ps3-elf/4.5.2/../../../../powerpc64-ps3-elf/lib/libc.a(lib_a-malign.o)
                              main.o (memalign)
/usr/local/ps3dev/ppu/lib/gcc/powerpc64-ps3-elf/4.5.2/../../../../powerpc64-ps3-elf/lib/libc.a(lib_a-malignr.o)
                              /usr/local/ps3dev/ppu/lib/gcc/powerpc64-ps3-elf/4.5.2/../../../../powerpc64-ps3-elf/lib/libc.a(lib_a-malign.o) (_memalign_r)
/usr/local/ps3dev/ppu/lib/gcc/powerpc64-ps3-elf/4.5.2/../../../../powerpc64-ps3-elf/lib/libc.a(lib_a-malloc.o)
                              /usr/local/ps3dev/libpsl1ght/ppu/lib/librt.a(dirent.o) (malloc)
/usr/local/ps3dev/ppu/lib/gcc/powerpc64-ps3-elf/4.5.2/../../../../powerpc64-ps3-elf/lib/libc.a(lib_a-mallocr.o)
                              /usr/local/ps3dev/ppu/lib/gcc/powerpc64-ps3-elf/4.5.2/../../../../powerpc64-ps3-elf/lib/libc.a(lib_a-malignr.o) (_malloc_r)
/usr/local/ps3dev/ppu/lib/gcc/powerpc64-ps3-elf/4.5.2/../../../../powerpc64-ps3-elf/lib/libc.a(lib_a-memset.o)
                              /usr/local/ps3dev/libpsl1ght/ppu/lib/librt.a(fstat.o) (memset)
/usr/local/ps3dev/ppu/lib/gcc/powerpc64-ps3-elf/4.5.2/../../../../powerpc64-ps3-elf/lib/libc.a(lib_a-mlock.o)
                              /usr/local/ps3dev/ppu/lib/gcc/powerpc64-ps3-elf/4.5.2/../../../../powerpc64-ps3-elf/lib/libc.a(lib_a-malignr.o) (__malloc_lock)
/usr/local/ps3dev/ppu/lib/gcc/powerpc64-ps3-elf/4.5.2/../../../../powerpc64-ps3-elf/lib/libc.a(lib_a-puts.o)
                              main.o (puts)
/usr/local/ps3dev/ppu/lib/gcc/powerpc64-ps3-elf/4.5.2/../../../../powerpc64-ps3-elf/lib/libc.a(lib_a-sscanf.o)
                              /usr/local/ps3dev/libpsl1ght/ppu/lib/librt.a(socket.o) (sscanf)
/usr/local/ps3dev/ppu/lib/gcc/powerpc64-ps3-elf/4.5.2/../../../../powerpc64-ps3-elf/lib/libc.a(lib_a-stdio.o)
                              /usr/local/ps3dev/ppu/lib/gcc/powerpc64-ps3-elf/4.5.2/../../../../powerpc64-ps3-elf/lib/libc.a(lib_a-sscanf.o) (__seofread)
/usr/local/ps3dev/ppu/lib/gcc/powerpc64-ps3-elf/4.5.2/../../../../powerpc64-ps3-elf/lib/libc.a(lib_a-strcasecmp.o)
                              /usr/local/ps3dev/libpsl1ght/ppu/lib/librsx.a(vertex_program.o) (strcasecmp)
/usr/local/ps3dev/ppu/lib/gcc/powerpc64-ps3-elf/4.5.2/../../../../powerpc64-ps3-elf/lib/libc.a(lib_a-strlen.o)
                              /usr/local/ps3dev/ppu/lib/gcc/powerpc64-ps3-elf/4.5.2/../../../../powerpc64-ps3-elf/lib/libc.a(lib_a-puts.o) (strlen)
/usr/local/ps3dev/ppu/lib/gcc/powerpc64-ps3-elf/4.5.2/../../../../powerpc64-ps3-elf/lib/libc.a(lib_a-strncpy.o)
                              /usr/local/ps3dev/libpsl1ght/ppu/lib/librt.a(dirent.o) (strncpy)
/usr/local/ps3dev/ppu/lib/gcc/powerpc64-ps3-elf/4.5.2/../../../../powerpc64-ps3-elf/lib/libc.a(lib_a-svfscanf.o)
                              /usr/local/ps3dev/ppu/lib/gcc/powerpc64-ps3-elf/4.5.2/../../../../powerpc64-ps3-elf/lib/libc.a(lib_a-sscanf.o) (__ssvfscanf_r)
/usr/local/ps3dev/ppu/lib/gcc/powerpc64-ps3-elf/4.5.2/../../../../powerpc64-ps3-elf/lib/libc.a(lib_a-__atexit.o)
                              /usr/local/ps3dev/ppu/lib/gcc/powerpc64-ps3-elf/4.5.2/../../../../powerpc64-ps3-elf/lib/libc.a(lib_a-atexit.o) (__register_exitproc)
/usr/local/ps3dev/ppu/lib/gcc/powerpc64-ps3-elf/4.5.2/../../../../powerpc64-ps3-elf/lib/libc.a(lib_a-__call_atexit.o)
                              /usr/local/ps3dev/ppu/lib/gcc/powerpc64-ps3-elf/4.5.2/../../../../powerpc64-ps3-elf/lib/libc.a(lib_a-exit.o) (__call_exitprocs)
/usr/local/ps3dev/ppu/lib/gcc/powerpc64-ps3-elf/4.5.2/../../../../powerpc64-ps3-elf/lib/libc.a(lib_a-ctype_.o)
                              /usr/local/ps3dev/ppu/lib/gcc/powerpc64-ps3-elf/4.5.2/../../../../powerpc64-ps3-elf/lib/libc.a(lib_a-strcasecmp.o) (__ctype_ptr__)
/usr/local/ps3dev/ppu/lib/gcc/powerpc64-ps3-elf/4.5.2/../../../../powerpc64-ps3-elf/lib/libc.a(lib_a-findfp.o)
                              /usr/local/ps3dev/ppu/lib/gcc/powerpc64-ps3-elf/4.5.2/../../../../powerpc64-ps3-elf/lib/libc.a(lib_a-svfscanf.o) (__sfp_lock_acquire)
/usr/local/ps3dev/ppu/lib/gcc/powerpc64-ps3-elf/4.5.2/../../../../powerpc64-ps3-elf/lib/libc.a(lib_a-freer.o)
                              /usr/local/ps3dev/ppu/lib/gcc/powerpc64-ps3-elf/4.5.2/../../../../powerpc64-ps3-elf/lib/libc.a(lib_a-malignr.o) (_free_r)
/usr/local/ps3dev/ppu/lib/gcc/powerpc64-ps3-elf/4.5.2/../../../../powerpc64-ps3-elf/lib/libc.a(lib_a-fvwrite.o)
                              /usr/local/ps3dev/ppu/lib/gcc/powerpc64-ps3-elf/4.5.2/../../../../powerpc64-ps3-elf/lib/libc.a(lib_a-puts.o) (__sfvwrite_r)
/usr/local/ps3dev/ppu/lib/gcc/powerpc64-ps3-elf/4.5.2/../../../../powerpc64-ps3-elf/lib/libc.a(lib_a-fwalk.o)
                              /usr/local/ps3dev/ppu/lib/gcc/powerpc64-ps3-elf/4.5.2/../../../../powerpc64-ps3-elf/lib/libc.a(lib_a-findfp.o) (_fwalk)
/usr/local/ps3dev/ppu/lib/gcc/powerpc64-ps3-elf/4.5.2/../../../../powerpc64-ps3-elf/lib/libc.a(lib_a-iswspace.o)
                              /usr/local/ps3dev/ppu/lib/gcc/powerpc64-ps3-elf/4.5.2/../../../../powerpc64-ps3-elf/lib/libc.a(lib_a-svfscanf.o) (iswspace)
/usr/local/ps3dev/ppu/lib/gcc/powerpc64-ps3-elf/4.5.2/../../../../powerpc64-ps3-elf/lib/libc.a(lib_a-locale.o)
                              /usr/local/ps3dev/ppu/lib/gcc/powerpc64-ps3-elf/4.5.2/../../../../powerpc64-ps3-elf/lib/libc.a(lib_a-svfscanf.o) (__locale_mb_cur_max)
/usr/local/ps3dev/ppu/lib/gcc/powerpc64-ps3-elf/4.5.2/../../../../powerpc64-ps3-elf/lib/libc.a(lib_a-lock_recursive.o)
                              /usr/local/ps3dev/ppu/lib/gcc/powerpc64-ps3-elf/4.5.2/../../../../powerpc64-ps3-elf/lib/libc.a(lib_a-findfp.o) (__libc_lock_init_recursive)
/usr/local/ps3dev/ppu/lib/gcc/powerpc64-ps3-elf/4.5.2/../../../../powerpc64-ps3-elf/lib/libc.a(lib_a-mbrtowc.o)
                              /usr/local/ps3dev/ppu/lib/gcc/powerpc64-ps3-elf/4.5.2/../../../../powerpc64-ps3-elf/lib/libc.a(lib_a-svfscanf.o) (_mbrtowc_r)
/usr/local/ps3dev/ppu/lib/gcc/powerpc64-ps3-elf/4.5.2/../../../../powerpc64-ps3-elf/lib/libc.a(lib_a-mbtowc_r.o)
                              /usr/local/ps3dev/ppu/lib/gcc/powerpc64-ps3-elf/4.5.2/../../../../powerpc64-ps3-elf/lib/libc.a(lib_a-mbrtowc.o) (__mbtowc)
/usr/local/ps3dev/ppu/lib/gcc/powerpc64-ps3-elf/4.5.2/../../../../powerpc64-ps3-elf/lib/libc.a(lib_a-memchr.o)
                              /usr/local/ps3dev/ppu/lib/gcc/powerpc64-ps3-elf/4.5.2/../../../../powerpc64-ps3-elf/lib/libc.a(lib_a-fvwrite.o) (memchr)
/usr/local/ps3dev/ppu/lib/gcc/powerpc64-ps3-elf/4.5.2/../../../../powerpc64-ps3-elf/lib/libc.a(lib_a-memcpy.o)
                              /usr/local/ps3dev/ppu/lib/gcc/powerpc64-ps3-elf/4.5.2/../../../../powerpc64-ps3-elf/lib/libc.a(lib_a-fvwrite.o) (memcpy)
/usr/local/ps3dev/ppu/lib/gcc/powerpc64-ps3-elf/4.5.2/../../../../powerpc64-ps3-elf/lib/libc.a(lib_a-memmove.o)
                              /usr/local/ps3dev/ppu/lib/gcc/powerpc64-ps3-elf/4.5.2/../../../../powerpc64-ps3-elf/lib/libc.a(lib_a-fvwrite.o) (memmove)
/usr/local/ps3dev/ppu/lib/gcc/powerpc64-ps3-elf/4.5.2/../../../../powerpc64-ps3-elf/lib/libc.a(lib_a-reallocr.o)
                              /usr/local/ps3dev/ppu/lib/gcc/powerpc64-ps3-elf/4.5.2/../../../../powerpc64-ps3-elf/lib/libc.a(lib_a-fvwrite.o) (_realloc_r)
/usr/local/ps3dev/ppu/lib/gcc/powerpc64-ps3-elf/4.5.2/../../../../powerpc64-ps3-elf/lib/libc.a(lib_a-sccl.o)
                              /usr/local/ps3dev/ppu/lib/gcc/powerpc64-ps3-elf/4.5.2/../../../../powerpc64-ps3-elf/lib/libc.a(lib_a-svfscanf.o) (__sccl)
/usr/local/ps3dev/ppu/lib/gcc/powerpc64-ps3-elf/4.5.2/../../../../powerpc64-ps3-elf/lib/libc.a(lib_a-sf_nan.o)
                              /usr/local/ps3dev/ppu/lib/gcc/powerpc64-ps3-elf/4.5.2/../../../../powerpc64-ps3-elf/lib/libc.a(lib_a-svfscanf.o) (nanf)
/usr/local/ps3dev/ppu/lib/gcc/powerpc64-ps3-elf/4.5.2/../../../../powerpc64-ps3-elf/lib/libc.a(lib_a-s_fpclassify.o)
                              /usr/local/ps3dev/ppu/lib/gcc/powerpc64-ps3-elf/4.5.2/../../../../powerpc64-ps3-elf/lib/libc.a(lib_a-svfscanf.o) (__fpclassifyd)
/usr/local/ps3dev/ppu/lib/gcc/powerpc64-ps3-elf/4.5.2/../../../../powerpc64-ps3-elf/lib/libc.a(lib_a-sprintf.o)
                              /usr/local/ps3dev/ppu/lib/gcc/powerpc64-ps3-elf/4.5.2/../../../../powerpc64-ps3-elf/lib/libc.a(lib_a-svfscanf.o) (sprintf)
/usr/local/ps3dev/ppu/lib/gcc/powerpc64-ps3-elf/4.5.2/../../../../powerpc64-ps3-elf/lib/libc.a(lib_a-strcmp.o)
                              /usr/local/ps3dev/ppu/lib/gcc/powerpc64-ps3-elf/4.5.2/../../../../powerpc64-ps3-elf/lib/libc.a(lib_a-locale.o) (strcmp)
/usr/local/ps3dev/ppu/lib/gcc/powerpc64-ps3-elf/4.5.2/../../../../powerpc64-ps3-elf/lib/libc.a(lib_a-strtod.o)
                              /usr/local/ps3dev/ppu/lib/gcc/powerpc64-ps3-elf/4.5.2/../../../../powerpc64-ps3-elf/lib/libc.a(lib_a-svfscanf.o) (_strtod_r)
/usr/local/ps3dev/ppu/lib/gcc/powerpc64-ps3-elf/4.5.2/../../../../powerpc64-ps3-elf/lib/libc.a(lib_a-strtoll_r.o)
                              /usr/local/ps3dev/ppu/lib/gcc/powerpc64-ps3-elf/4.5.2/../../../../powerpc64-ps3-elf/lib/libc.a(lib_a-svfscanf.o) (_strtoll_r)
/usr/local/ps3dev/ppu/lib/gcc/powerpc64-ps3-elf/4.5.2/../../../../powerpc64-ps3-elf/lib/libc.a(lib_a-strtol.o)
                              /usr/local/ps3dev/ppu/lib/gcc/powerpc64-ps3-elf/4.5.2/../../../../powerpc64-ps3-elf/lib/libc.a(lib_a-svfscanf.o) (_strtol_r)
/usr/local/ps3dev/ppu/lib/gcc/powerpc64-ps3-elf/4.5.2/../../../../powerpc64-ps3-elf/lib/libc.a(lib_a-strtoull_r.o)
                              /usr/local/ps3dev/ppu/lib/gcc/powerpc64-ps3-elf/4.5.2/../../../../powerpc64-ps3-elf/lib/libc.a(lib_a-svfscanf.o) (_strtoull_r)
/usr/local/ps3dev/ppu/lib/gcc/powerpc64-ps3-elf/4.5.2/../../../../powerpc64-ps3-elf/lib/libc.a(lib_a-strtoul.o)
                              /usr/local/ps3dev/ppu/lib/gcc/powerpc64-ps3-elf/4.5.2/../../../../powerpc64-ps3-elf/lib/libc.a(lib_a-svfscanf.o) (_strtoul_r)
/usr/local/ps3dev/ppu/lib/gcc/powerpc64-ps3-elf/4.5.2/../../../../powerpc64-ps3-elf/lib/libc.a(lib_a-svfiscanf.o)
                              /usr/local/ps3dev/ppu/lib/gcc/powerpc64-ps3-elf/4.5.2/../../../../powerpc64-ps3-elf/lib/libc.a(lib_a-svfscanf.o) (_sungetc_r)
/usr/local/ps3dev/ppu/lib/gcc/powerpc64-ps3-elf/4.5.2/../../../../powerpc64-ps3-elf/lib/libc.a(lib_a-svfprintf.o)
                              /usr/local/ps3dev/ppu/lib/gcc/powerpc64-ps3-elf/4.5.2/../../../../powerpc64-ps3-elf/lib/libc.a(lib_a-sprintf.o) (_svfprintf_r)
/usr/local/ps3dev/ppu/lib/gcc/powerpc64-ps3-elf/4.5.2/../../../../powerpc64-ps3-elf/lib/libc.a(lib_a-ungetc.o)
                              /usr/local/ps3dev/ppu/lib/gcc/powerpc64-ps3-elf/4.5.2/../../../../powerpc64-ps3-elf/lib/libc.a(lib_a-svfiscanf.o) (__submore)
/usr/local/ps3dev/ppu/lib/gcc/powerpc64-ps3-elf/4.5.2/../../../../powerpc64-ps3-elf/lib/libc.a(lib_a-wsetup.o)
                              /usr/local/ps3dev/ppu/lib/gcc/powerpc64-ps3-elf/4.5.2/../../../../powerpc64-ps3-elf/lib/libc.a(lib_a-fvwrite.o) (__swsetup_r)
/usr/local/ps3dev/ppu/lib/gcc/powerpc64-ps3-elf/4.5.2/../../../../powerpc64-ps3-elf/lib/libc.a(lib_a-dtoa.o)
                              /usr/local/ps3dev/ppu/lib/gcc/powerpc64-ps3-elf/4.5.2/../../../../powerpc64-ps3-elf/lib/libc.a(lib_a-svfprintf.o) (_dtoa_r)
/usr/local/ps3dev/ppu/lib/gcc/powerpc64-ps3-elf/4.5.2/../../../../powerpc64-ps3-elf/lib/libc.a(lib_a-fclose.o)
                              /usr/local/ps3dev/ppu/lib/gcc/powerpc64-ps3-elf/4.5.2/../../../../powerpc64-ps3-elf/lib/libc.a(lib_a-findfp.o) (fclose)
/usr/local/ps3dev/ppu/lib/gcc/powerpc64-ps3-elf/4.5.2/../../../../powerpc64-ps3-elf/lib/libc.a(lib_a-fflush.o)
                              /usr/local/ps3dev/ppu/lib/gcc/powerpc64-ps3-elf/4.5.2/../../../../powerpc64-ps3-elf/lib/libc.a(lib_a-fvwrite.o) (_fflush_r)
/usr/local/ps3dev/ppu/lib/gcc/powerpc64-ps3-elf/4.5.2/../../../../powerpc64-ps3-elf/lib/libc.a(lib_a-gdtoa-gethex.o)
                              /usr/local/ps3dev/ppu/lib/gcc/powerpc64-ps3-elf/4.5.2/../../../../powerpc64-ps3-elf/lib/libc.a(lib_a-strtod.o) (__gethex)
/usr/local/ps3dev/ppu/lib/gcc/powerpc64-ps3-elf/4.5.2/../../../../powerpc64-ps3-elf/lib/libc.a(lib_a-gdtoa-hexnan.o)
                              /usr/local/ps3dev/ppu/lib/gcc/powerpc64-ps3-elf/4.5.2/../../../../powerpc64-ps3-elf/lib/libc.a(lib_a-strtod.o) (__hexnan)
/usr/local/ps3dev/ppu/lib/gcc/powerpc64-ps3-elf/4.5.2/../../../../powerpc64-ps3-elf/lib/libc.a(lib_a-lock_internal.o)
                              /usr/local/ps3dev/ppu/lib/gcc/powerpc64-ps3-elf/4.5.2/../../../../powerpc64-ps3-elf/lib/libc.a(lib_a-lock_recursive.o) (__libc_auto_lock_allocate)
/usr/local/ps3dev/ppu/lib/gcc/powerpc64-ps3-elf/4.5.2/../../../../powerpc64-ps3-elf/lib/libc.a(lib_a-makebuf.o)
                              /usr/local/ps3dev/ppu/lib/gcc/powerpc64-ps3-elf/4.5.2/../../../../powerpc64-ps3-elf/lib/libc.a(lib_a-wsetup.o) (__smakebuf_r)
/usr/local/ps3dev/ppu/lib/gcc/powerpc64-ps3-elf/4.5.2/../../../../powerpc64-ps3-elf/lib/libc.a(lib_a-mprec.o)
                              /usr/local/ps3dev/ppu/lib/gcc/powerpc64-ps3-elf/4.5.2/../../../../powerpc64-ps3-elf/lib/libc.a(lib_a-strtod.o) (_Balloc)
/usr/local/ps3dev/ppu/lib/gcc/powerpc64-ps3-elf/4.5.2/../../../../powerpc64-ps3-elf/lib/libc.a(lib_a-strncmp.o)
                              /usr/local/ps3dev/ppu/lib/gcc/powerpc64-ps3-elf/4.5.2/../../../../powerpc64-ps3-elf/lib/libc.a(lib_a-strtod.o) (strncmp)
/usr/local/ps3dev/ppu/lib/gcc/powerpc64-ps3-elf/4.5.2/../../../../powerpc64-ps3-elf/lib/libc.a(lib_a-svfiprintf.o)
                              /usr/local/ps3dev/ppu/lib/gcc/powerpc64-ps3-elf/4.5.2/../../../../powerpc64-ps3-elf/lib/libc.a(lib_a-svfprintf.o) (__ssprint_r)
/usr/local/ps3dev/ppu/lib/gcc/powerpc64-ps3-elf/4.5.2/../../../../powerpc64-ps3-elf/lib/libc.a(lib_a-abort.o)
                              /usr/local/ps3dev/ppu/lib/gcc/powerpc64-ps3-elf/4.5.2/../../../../powerpc64-ps3-elf/lib/libc.a(lib_a-lock_internal.o) (abort)
/usr/local/ps3dev/ppu/lib/gcc/powerpc64-ps3-elf/4.5.2/../../../../powerpc64-ps3-elf/lib/libc.a(lib_a-callocr.o)
                              /usr/local/ps3dev/ppu/lib/gcc/powerpc64-ps3-elf/4.5.2/../../../../powerpc64-ps3-elf/lib/libc.a(lib_a-mprec.o) (_calloc_r)
/usr/local/ps3dev/ppu/lib/gcc/powerpc64-ps3-elf/4.5.2/../../../../powerpc64-ps3-elf/lib/libc.a(lib_a-signal.o)
                              /usr/local/ps3dev/ppu/lib/gcc/powerpc64-ps3-elf/4.5.2/../../../../powerpc64-ps3-elf/lib/libc.a(lib_a-abort.o) (raise)
/usr/local/ps3dev/ppu/lib/gcc/powerpc64-ps3-elf/4.5.2/../../../../powerpc64-ps3-elf/lib/libsysbase.a(close.o)
                              /usr/local/ps3dev/ppu/lib/gcc/powerpc64-ps3-elf/4.5.2/../../../../powerpc64-ps3-elf/lib/libc.a(lib_a-stdio.o) (_close_r)
/usr/local/ps3dev/ppu/lib/gcc/powerpc64-ps3-elf/4.5.2/../../../../powerpc64-ps3-elf/lib/libsysbase.a(sbrk.o)
                              /usr/local/ps3dev/ppu/lib/gcc/powerpc64-ps3-elf/4.5.2/../../../../powerpc64-ps3-elf/lib/libc.a(lib_a-mallocr.o) (_sbrk_r)
/usr/local/ps3dev/ppu/lib/gcc/powerpc64-ps3-elf/4.5.2/../../../../powerpc64-ps3-elf/lib/libsysbase.a(_exit.o)
                              /usr/local/ps3dev/ppu/lib/gcc/powerpc64-ps3-elf/4.5.2/../../../../powerpc64-ps3-elf/lib/libc.a(lib_a-exit.o) (_exit)
/usr/local/ps3dev/ppu/lib/gcc/powerpc64-ps3-elf/4.5.2/../../../../powerpc64-ps3-elf/lib/libsysbase.a(fstat.o)
                              /usr/local/ps3dev/ppu/lib/gcc/powerpc64-ps3-elf/4.5.2/../../../../powerpc64-ps3-elf/lib/libc.a(lib_a-makebuf.o) (_fstat_r)
/usr/local/ps3dev/ppu/lib/gcc/powerpc64-ps3-elf/4.5.2/../../../../powerpc64-ps3-elf/lib/libsysbase.a(isatty.o)
                              /usr/local/ps3dev/ppu/lib/gcc/powerpc64-ps3-elf/4.5.2/../../../../powerpc64-ps3-elf/lib/libc.a(lib_a-makebuf.o) (_isatty_r)
/usr/local/ps3dev/ppu/lib/gcc/powerpc64-ps3-elf/4.5.2/../../../../powerpc64-ps3-elf/lib/libsysbase.a(lseek.o)
                              /usr/local/ps3dev/ppu/lib/gcc/powerpc64-ps3-elf/4.5.2/../../../../powerpc64-ps3-elf/lib/libc.a(lib_a-stdio.o) (_lseek_r)
/usr/local/ps3dev/ppu/lib/gcc/powerpc64-ps3-elf/4.5.2/../../../../powerpc64-ps3-elf/lib/libsysbase.a(read.o)
                              /usr/local/ps3dev/ppu/lib/gcc/powerpc64-ps3-elf/4.5.2/../../../../powerpc64-ps3-elf/lib/libc.a(lib_a-stdio.o) (_read_r)
/usr/local/ps3dev/ppu/lib/gcc/powerpc64-ps3-elf/4.5.2/../../../../powerpc64-ps3-elf/lib/libsysbase.a(write.o)
                              /usr/local/ps3dev/ppu/lib/gcc/powerpc64-ps3-elf/4.5.2/../../../../powerpc64-ps3-elf/lib/libc.a(lib_a-stdio.o) (_write_r)
/usr/local/ps3dev/ppu/lib/gcc/powerpc64-ps3-elf/4.5.2/../../../../powerpc64-ps3-elf/lib/libsysbase.a(lock.o)
                              /usr/local/ps3dev/ppu/lib/gcc/powerpc64-ps3-elf/4.5.2/../../../../powerpc64-ps3-elf/lib/libc.a(lib_a-lock_recursive.o) (sys_lwmutex_create)
/usr/local/ps3dev/ppu/lib/gcc/powerpc64-ps3-elf/4.5.2/../../../../powerpc64-ps3-elf/lib/libsysbase.a(getpid.o)
                              /usr/local/ps3dev/ppu/lib/gcc/powerpc64-ps3-elf/4.5.2/../../../../powerpc64-ps3-elf/lib/libc.a(lib_a-signal.o) (_getpid_r)
/usr/local/ps3dev/ppu/lib/gcc/powerpc64-ps3-elf/4.5.2/../../../../powerpc64-ps3-elf/lib/libsysbase.a(kill.o)
                              /usr/local/ps3dev/ppu/lib/gcc/powerpc64-ps3-elf/4.5.2/../../../../powerpc64-ps3-elf/lib/libc.a(lib_a-signal.o) (_kill_r)

Allocating common symbols
Common symbol       size              file

depth_offset        0x4               rsxutil.o
depth_pitch         0x4               rsxutil.o
color_pitch         0x4               rsxutil.o
depth_buffer        0x8               rsxutil.o
__hexdig            0x100             /usr/local/ps3dev/ppu/lib/gcc/powerpc64-ps3-elf/4.5.2/../../../../powerpc64-ps3-elf/lib/libc.a(lib_a-gdtoa-gethex.o)
display_height      0x4               rsxutil.o
display_width       0x4               rsxutil.o
color_buffer        0x10              rsxutil.o
color_offset        0x8               rsxutil.o
res                 0x4               rsxutil.o

Discarded input sections

 .note.GNU-stack
                0x0000000000000000        0x0 /usr/local/ps3dev/libpsl1ght/ppu/lib/libgcm_sys.a(sprx.o)
 .note.GNU-stack
                0x0000000000000000        0x0 /usr/local/ps3dev/libpsl1ght/ppu/lib/libio.a(sprx.o)
 .note.GNU-stack
                0x0000000000000000        0x0 /usr/local/ps3dev/libpsl1ght/ppu/lib/libsysutil.a(sprx.o)
 .note.GNU-stack
                0x0000000000000000        0x0 /usr/local/ps3dev/libpsl1ght/ppu/lib/liblv2.a(sprx.o)

Memory Configuration

Name             Origin             Length             Attributes
*default*        0x0000000000000000 0xffffffffffffffff

Linker script and memory map

                0x0000000000010000                PROVIDE (__executable_start, 0x10000)
                0x0000000000010200                . = (0x10000 + SIZEOF_HEADERS)

.interp
 *(.interp)

.hash
 *(.hash)

.dynsym
 *(.dynsym)

.dynstr
 *(.dynstr)

.gnu.version
 *(.gnu.version)

.gnu.version_d
 *(.gnu.version_d)

.gnu.version_r
 *(.gnu.version_r)

.rel.dyn
 *(.rel.init)
 *(.rel.text .rel.text.* .rel.gnu.linkonce.t.*)
 *(.rel.fini)
 *(.rel.rodata .rel.rodata.* .rel.gnu.linkonce.r.*)
 *(.rel.data.rel.ro*)
 *(.rel.data .rel.data.* .rel.gnu.linkonce.d.*)
 *(.rel.tdata .rel.tdata.* .rel.gnu.linkonce.td.*)
 *(.rel.tbss .rel.tbss.* .rel.gnu.linkonce.tb.*)
 *(.rel.ctors)
 *(.rel.dtors)
 *(.rel.got)
 *(.rel.sdata .rel.sdata.* .rel.gnu.linkonce.s.*)
 *(.rel.sbss .rel.sbss.* .rel.gnu.linkonce.sb.*)
 *(.rel.sdata2 .rel.sdata2.* .rel.gnu.linkonce.s2.*)
 *(.rel.sbss2 .rel.sbss2.* .rel.gnu.linkonce.sb2.*)
 *(.rel.bss .rel.bss.* .rel.gnu.linkonce.b.*)

.rela.dyn       0x0000000000010200        0x0
 *(.rela.init)
 *(.rela.text .rela.text.* .rela.gnu.linkonce.t.*)
 *(.rela.fini)
 *(.rela.rodata .rela.rodata.* .rela.gnu.linkonce.r.*)
 *(.rela.data .rela.data.* .rela.gnu.linkonce.d.*)
 *(.rela.tdata .rela.tdata.* .rela.gnu.linkonce.td.*)
 *(.rela.tbss .rela.tbss.* .rela.gnu.linkonce.tb.*)
 *(.rela.ctors)
 *(.rela.dtors)
 *(.rela.got)
 *(.rela.toc)
 .rela.toc      0x0000000000000000        0x0 linker stubs
 *(.rela.sdata .rela.sdata.* .rela.gnu.linkonce.s.*)
 *(.rela.sbss .rela.sbss.* .rela.gnu.linkonce.sb.*)
 *(.rela.sdata2 .rela.sdata2.* .rela.gnu.linkonce.s2.*)
 *(.rela.sbss2 .rela.sbss2.* .rela.gnu.linkonce.sb2.*)
 *(.rela.bss .rela.bss.* .rela.gnu.linkonce.b.*)
 .rela.iplt     0x0000000000000000        0x0 linker stubs
 .rela.sys_proc_prx_param
                0x0000000000000000        0x0 linker stubs
 .rela.opd      0x0000000000000000        0x0 linker stubs

.rel.plt
 *(.rel.plt)

.rela.plt
 *(.rela.plt)

.rela.tocbss
 *(.rela.tocbss)

.init           0x0000000000010200       0x2c
 *(.init)
 .init          0x0000000000010200        0xc /usr/local/ps3dev/ppu/lib/gcc/powerpc64-ps3-elf/4.5.2/../../../../powerpc64-ps3-elf/lib/lv2-crti.o
                0x0000000000010200                ._init
 .init          0x000000000001020c        0x8 /usr/local/ps3dev/ppu/lib/gcc/powerpc64-ps3-elf/4.5.2/crtbegin.o
 .init          0x0000000000010214        0x8 /usr/local/ps3dev/ppu/lib/gcc/powerpc64-ps3-elf/4.5.2/crtend.o
 .init          0x000000000001021c       0x10 /usr/local/ps3dev/ppu/lib/gcc/powerpc64-ps3-elf/4.5.2/../../../../powerpc64-ps3-elf/lib/lv2-crtn.o

.text           0x0000000000010230    0x19b94
 *(.text .stub .text.* .gnu.linkonce.t.*)
 .text          0x0000000000010230        0x0 /usr/local/ps3dev/ppu/lib/gcc/powerpc64-ps3-elf/4.5.2/../../../../powerpc64-ps3-elf/lib/lv2-crti.o
 .text          0x0000000000010230        0x0 /usr/local/ps3dev/ppu/lib/gcc/powerpc64-ps3-elf/4.5.2/crtbegin.o
 .text.__do_global_dtors_aux
                0x0000000000010230       0xc8 /usr/local/ps3dev/ppu/lib/gcc/powerpc64-ps3-elf/4.5.2/crtbegin.o
 .text.frame_dummy
                0x00000000000102f8       0x70 /usr/local/ps3dev/ppu/lib/gcc/powerpc64-ps3-elf/4.5.2/crtbegin.o
 .text          0x0000000000010368       0x58 /usr/local/ps3dev/ppu/lib/gcc/powerpc64-ps3-elf/4.5.2/../../../../powerpc64-ps3-elf/lib/lv2-crt0.o
                0x0000000000010368                ._start
 .text.__syscalls_init
                0x00000000000103c0      0x15c /usr/local/ps3dev/ppu/lib/gcc/powerpc64-ps3-elf/4.5.2/../../../../powerpc64-ps3-elf/lib/lv2-crt0.o
 *fill*         0x000000000001051c        0x4 60000000
 .text._initialize
                0x0000000000010520       0x40 /usr/local/ps3dev/ppu/lib/gcc/powerpc64-ps3-elf/4.5.2/../../../../powerpc64-ps3-elf/lib/lv2-crt0.o
                0x0000000000010520                ._initialize
 .text          0x0000000000010560        0x0 /usr/local/ps3dev/ppu/lib/gcc/powerpc64-ps3-elf/4.5.2/../../../../powerpc64-ps3-elf/lib/lv2-sprx.o
 .text          0x0000000000010560        0x0 main.o
 .text.dialog_handler
                0x0000000000010560       0x5c main.o
 *fill*         0x00000000000105bc        0x4 60000000
 .text.do_flip  0x00000000000105c0       0x38 main.o
 .text.sysutil_callback
                0x00000000000105f8       0x3c main.o
                0x00000000000105f8                .sysutil_callback
 *fill*         0x0000000000010634        0x4 60000000
 .text.program_exit_callback
                0x0000000000010638       0x5c main.o
                0x0000000000010638                .program_exit_callback
 *fill*         0x0000000000010694        0x4 60000000
 .text.main     0x0000000000010698      0x21c main.o
                0x0000000000010698                .main
 .text          0x00000000000108b4        0x0 rsxutil.o
 *fill*         0x00000000000108b4        0x4 60000000
 .text.set_render_target
                0x00000000000108b8       0xec rsxutil.o
                0x00000000000108b8                .set_render_target
 *fill*         0x00000000000109a4        0x4 60000000
 .text.init_screen
                0x00000000000109a8      0x28c rsxutil.o
                0x00000000000109a8                .init_screen
 *fill*         0x0000000000010c34        0x4 60000000
 .text.waitflip
                0x0000000000010c38       0x50 rsxutil.o
                0x0000000000010c38                .waitflip
 .text.flip     0x0000000000010c88       0xac rsxutil.o
                0x0000000000010c88                .flip
 .text          0x0000000000010d34        0x0 /usr/local/ps3dev/libpsl1ght/ppu/lib/librsx.a(init.o)
 *fill*         0x0000000000010d34        0x4 60000000
 .text.rsxInit  0x0000000000010d38       0x60 /usr/local/ps3dev/libpsl1ght/ppu/lib/librsx.a(init.o)
                0x0000000000010d38                .rsxInit
 .text.rsxSetupContextData
                0x0000000000010d98       0x38 /usr/local/ps3dev/libpsl1ght/ppu/lib/librsx.a(init.o)
                0x0000000000010d98                .rsxSetupContextData
 .text          0x0000000000010dd0        0x0 /usr/local/ps3dev/libpsl1ght/ppu/lib/librsx.a(buffer.o)
 .text.rsxResetCommandBuffer
                0x0000000000010dd0       0x80 /usr/local/ps3dev/libpsl1ght/ppu/lib/librsx.a(buffer.o)
                0x0000000000010dd0                .rsxResetCommandBuffer
 .text.rsxFlushBuffer
                0x0000000000010e50       0x78 /usr/local/ps3dev/libpsl1ght/ppu/lib/librsx.a(buffer.o)
                0x0000000000010e50                .rsxFlushBuffer
 .text.rsxFinish
                0x0000000000010ec8       0x84 /usr/local/ps3dev/libpsl1ght/ppu/lib/librsx.a(buffer.o)
                0x0000000000010ec8                .rsxFinish
 .text          0x0000000000010f4c        0x0 /usr/local/ps3dev/libpsl1ght/ppu/lib/librsx.a(commands.o)
 *fill*         0x0000000000010f4c        0x4 60000000
 .text.rsxContextCallback
                0x0000000000010f50       0x50 /usr/local/ps3dev/libpsl1ght/ppu/lib/librsx.a(commands.o)
                0x0000000000010f50                .rsxContextCallback
 .text.rsxSetReturnCommand
                0x0000000000010fa0       0x7c /usr/local/ps3dev/libpsl1ght/ppu/lib/librsx.a(commands.o)
                0x0000000000010fa0                .rsxSetReturnCommand
 *fill*         0x000000000001101c        0x4 60000000
 .text.rsxSetCallCommand
                0x0000000000011020       0x84 /usr/local/ps3dev/libpsl1ght/ppu/lib/librsx.a(commands.o)
                0x0000000000011020                .rsxSetCallCommand
 *fill*         0x00000000000110a4        0x4 60000000
 .text.rsxSetJumpCommand
                0x00000000000110a8       0x84 /usr/local/ps3dev/libpsl1ght/ppu/lib/librsx.a(commands.o)
                0x00000000000110a8                .rsxSetJumpCommand
 *fill*         0x000000000001112c        0x4 60000000
 .text.rsxSetNopCommand
                0x0000000000011130       0xbc /usr/local/ps3dev/libpsl1ght/ppu/lib/librsx.a(commands.o)
                0x0000000000011130                .rsxSetNopCommand
 *fill*         0x00000000000111ec        0x4 60000000
 .text.rsxSetClearColor
                0x00000000000111f0       0x94 /usr/local/ps3dev/libpsl1ght/ppu/lib/librsx.a(commands.o)
                0x00000000000111f0                .rsxSetClearColor
 *fill*         0x0000000000011284        0x4 60000000
 .text.rsxSetClearDepthValue
                0x0000000000011288       0x94 /usr/local/ps3dev/libpsl1ght/ppu/lib/librsx.a(commands.o)
                0x0000000000011288                .rsxSetClearDepthValue
 *fill*         0x000000000001131c        0x4 60000000
 .text.rsxSetReferenceCommand
                0x0000000000011320       0x94 /usr/local/ps3dev/libpsl1ght/ppu/lib/librsx.a(commands.o)
                0x0000000000011320                .rsxSetReferenceCommand
 *fill*         0x00000000000113b4        0x4 60000000
 .text.rsxSetWriteBackendLabel
                0x00000000000113b8       0xdc /usr/local/ps3dev/libpsl1ght/ppu/lib/librsx.a(commands.o)
                0x00000000000113b8                .rsxSetWriteBackendLabel
 *fill*         0x0000000000011494        0x4 60000000
 .text.rsxSetWaitLabel
                0x0000000000011498       0xc4 /usr/local/ps3dev/libpsl1ght/ppu/lib/librsx.a(commands.o)
                0x0000000000011498                .rsxSetWaitLabel
 *fill*         0x000000000001155c        0x4 60000000
 .text.rsxSetWriteCommandLabel
                0x0000000000011560       0xc4 /usr/local/ps3dev/libpsl1ght/ppu/lib/librsx.a(commands.o)
                0x0000000000011560                .rsxSetWriteCommandLabel
 *fill*         0x0000000000011624        0x4 60000000
 .text.rsxSetSurface
                0x0000000000011628      0x34c /usr/local/ps3dev/libpsl1ght/ppu/lib/librsx.a(commands.o)
                0x0000000000011628                .rsxSetSurface
 *fill*         0x0000000000011974        0x4 60000000
 .text.rsxSetColorMask
                0x0000000000011978       0x94 /usr/local/ps3dev/libpsl1ght/ppu/lib/librsx.a(commands.o)
                0x0000000000011978                .rsxSetColorMask
 *fill*         0x0000000000011a0c        0x4 60000000
 .text.rsxSetColorMaskMRT
                0x0000000000011a10       0x94 /usr/local/ps3dev/libpsl1ght/ppu/lib/librsx.a(commands.o)
                0x0000000000011a10                .rsxSetColorMaskMRT
 *fill*         0x0000000000011aa4        0x4 60000000
 .text.rsxSetShadeModel
                0x0000000000011aa8       0x94 /usr/local/ps3dev/libpsl1ght/ppu/lib/librsx.a(commands.o)
                0x0000000000011aa8                .rsxSetShadeModel
 *fill*         0x0000000000011b3c        0x4 60000000
 .text.rsxSetViewport
                0x0000000000011b40      0x338 /usr/local/ps3dev/libpsl1ght/ppu/lib/librsx.a(commands.o)
                0x0000000000011b40                .rsxSetViewport
 .text.rsxSetViewportClip
                0x0000000000011e78       0xc4 /usr/local/ps3dev/libpsl1ght/ppu/lib/librsx.a(commands.o)
                0x0000000000011e78                .rsxSetViewportClip
 *fill*         0x0000000000011f3c        0x4 60000000
 .text.rsxSetUserClipPlaneControl
                0x0000000000011f40       0xe4 /usr/local/ps3dev/libpsl1ght/ppu/lib/librsx.a(commands.o)
                0x0000000000011f40                .rsxSetUserClipPlaneControl
 *fill*         0x0000000000012024        0x4 60000000
 .text.rsxSetDepthTestEnable
                0x0000000000012028       0x94 /usr/local/ps3dev/libpsl1ght/ppu/lib/librsx.a(commands.o)
                0x0000000000012028                .rsxSetDepthTestEnable
 *fill*         0x00000000000120bc        0x4 60000000
 .text.rsxSetDepthFunc
                0x00000000000120c0       0x94 /usr/local/ps3dev/libpsl1ght/ppu/lib/librsx.a(commands.o)
                0x00000000000120c0                .rsxSetDepthFunc
 *fill*         0x0000000000012154        0x4 60000000
 .text.rsxSetDepthWriteEnable
                0x0000000000012158       0x94 /usr/local/ps3dev/libpsl1ght/ppu/lib/librsx.a(commands.o)
                0x0000000000012158                .rsxSetDepthWriteEnable
 *fill*         0x00000000000121ec        0x4 60000000
 .text.rsxSetCullFaceEnable
                0x00000000000121f0       0x94 /usr/local/ps3dev/libpsl1ght/ppu/lib/librsx.a(commands.o)
                0x00000000000121f0                .rsxSetCullFaceEnable
 *fill*         0x0000000000012284        0x4 60000000
 .text.rsxSetCullFace
                0x0000000000012288       0x94 /usr/local/ps3dev/libpsl1ght/ppu/lib/librsx.a(commands.o)
                0x0000000000012288                .rsxSetCullFace
 *fill*         0x000000000001231c        0x4 60000000
 .text.rsxSetFrontFace
                0x0000000000012320       0x94 /usr/local/ps3dev/libpsl1ght/ppu/lib/librsx.a(commands.o)
                0x0000000000012320                .rsxSetFrontFace
 *fill*         0x00000000000123b4        0x4 60000000
 .text.rsxClearSurface
                0x00000000000123b8       0xbc /usr/local/ps3dev/libpsl1ght/ppu/lib/librsx.a(commands.o)
                0x00000000000123b8                .rsxClearSurface
 *fill*         0x0000000000012474        0x4 60000000
 .text.rsxLoadVertexProgramBlock
                0x0000000000012478      0x1f0 /usr/local/ps3dev/libpsl1ght/ppu/lib/librsx.a(commands.o)
                0x0000000000012478                .rsxLoadVertexProgramBlock
 .text.rsxLoadFragmentProgramLocation
                0x0000000000012668      0x1f0 /usr/local/ps3dev/libpsl1ght/ppu/lib/librsx.a(commands.o)
                0x0000000000012668                .rsxLoadFragmentProgramLocation
 .text.rsxLoadVertexProgramParameterBlock
                0x0000000000012858      0x144 /usr/local/ps3dev/libpsl1ght/ppu/lib/librsx.a(commands.o)
                0x0000000000012858                .rsxLoadVertexProgramParameterBlock
 *fill*         0x000000000001299c        0x4 60000000
 .text.rsxLoadVertexProgram
                0x00000000000129a0       0xfc /usr/local/ps3dev/libpsl1ght/ppu/lib/librsx.a(commands.o)
                0x00000000000129a0                .rsxLoadVertexProgram
 *fill*         0x0000000000012a9c        0x4 60000000
 .text.rsxSetVertexProgramParameter
                0x0000000000012aa0       0x84 /usr/local/ps3dev/libpsl1ght/ppu/lib/librsx.a(commands.o)
                0x0000000000012aa0                .rsxSetVertexProgramParameter
 *fill*         0x0000000000012b24        0x4 60000000
 .text.rsxDrawVertexBegin
                0x0000000000012b28       0x94 /usr/local/ps3dev/libpsl1ght/ppu/lib/librsx.a(commands.o)
                0x0000000000012b28                .rsxDrawVertexBegin
 *fill*         0x0000000000012bbc        0x4 60000000
 .text.rsxDrawVertexEnd
                0x0000000000012bc0       0x8c /usr/local/ps3dev/libpsl1ght/ppu/lib/librsx.a(commands.o)
                0x0000000000012bc0                .rsxDrawVertexEnd
 *fill*         0x0000000000012c4c        0x4 60000000
 .text.rsxDrawVertex2f
                0x0000000000012c50       0xb4 /usr/local/ps3dev/libpsl1ght/ppu/lib/librsx.a(commands.o)
                0x0000000000012c50                .rsxDrawVertex2f
 *fill*         0x0000000000012d04        0x4 60000000
 .text.rsxDrawVertex3f
                0x0000000000012d08       0xcc /usr/local/ps3dev/libpsl1ght/ppu/lib/librsx.a(commands.o)
                0x0000000000012d08                .rsxDrawVertex3f
 *fill*         0x0000000000012dd4        0x4 60000000
 .text.rsxDrawVertex4f
                0x0000000000012dd8       0xdc /usr/local/ps3dev/libpsl1ght/ppu/lib/librsx.a(commands.o)
                0x0000000000012dd8                .rsxDrawVertex4f
 *fill*         0x0000000000012eb4        0x4 60000000
 .text.rsxInvalidateTextureCache
                0x0000000000012eb8       0x94 /usr/local/ps3dev/libpsl1ght/ppu/lib/librsx.a(commands.o)
                0x0000000000012eb8                .rsxInvalidateTextureCache
 *fill*         0x0000000000012f4c        0x4 60000000
 .text.rsxLoadTexture
                0x0000000000012f50      0x1d4 /usr/local/ps3dev/libpsl1ght/ppu/lib/librsx.a(commands.o)
                0x0000000000012f50                .rsxLoadTexture
 *fill*         0x0000000000013124        0x4 60000000
 .text.rsxTextureControl
                0x0000000000013128       0xd4 /usr/local/ps3dev/libpsl1ght/ppu/lib/librsx.a(commands.o)
                0x0000000000013128                .rsxTextureControl
 *fill*         0x00000000000131fc        0x4 60000000
 .text.rsxTextureFilter
                0x0000000000013200       0xc4 /usr/local/ps3dev/libpsl1ght/ppu/lib/librsx.a(commands.o)
                0x0000000000013200                .rsxTextureFilter
 *fill*         0x00000000000132c4        0x4 60000000
 .text.rsxTextureWrapMode
                0x00000000000132c8       0xf4 /usr/local/ps3dev/libpsl1ght/ppu/lib/librsx.a(commands.o)
                0x00000000000132c8                .rsxTextureWrapMode
 *fill*         0x00000000000133bc        0x4 60000000
 .text.rsxZControl
                0x00000000000133c0       0xb4 /usr/local/ps3dev/libpsl1ght/ppu/lib/librsx.a(commands.o)
                0x00000000000133c0                .rsxZControl
 *fill*         0x0000000000013474        0x4 60000000
 .text.rsxBindVertexArrayAttrib
                0x0000000000013478      0x104 /usr/local/ps3dev/libpsl1ght/ppu/lib/librsx.a(commands.o)
                0x0000000000013478                .rsxBindVertexArrayAttrib
 *fill*         0x000000000001357c        0x4 60000000
 .text.rsxDrawVertexArray
                0x0000000000013580      0x1ec /usr/local/ps3dev/libpsl1ght/ppu/lib/librsx.a(commands.o)
                0x0000000000013580                .rsxDrawVertexArray
 *fill*         0x000000000001376c        0x4 60000000
 .text.rsxDrawIndexArray
                0x0000000000013770      0x22c /usr/local/ps3dev/libpsl1ght/ppu/lib/librsx.a(commands.o)
                0x0000000000013770                .rsxDrawIndexArray
 *fill*         0x000000000001399c        0x4 60000000
 .text.rsxSetScissor
                0x00000000000139a0       0xcc /usr/local/ps3dev/libpsl1ght/ppu/lib/librsx.a(commands.o)
                0x00000000000139a0                .rsxSetScissor
 *fill*         0x0000000000013a6c        0x4 60000000
 .text.rsxInlineTransfer
                0x0000000000013a70      0x228 /usr/local/ps3dev/libpsl1ght/ppu/lib/librsx.a(commands.o)
                0x0000000000013a70                .rsxInlineTransfer
 .text.rsxSetFragmentProgramParameter
                0x0000000000013c98      0x2a8 /usr/local/ps3dev/libpsl1ght/ppu/lib/librsx.a(commands.o)
                0x0000000000013c98                .rsxSetFragmentProgramParameter
 .text.rsxSetBlendFunc
                0x0000000000013f40       0xcc /usr/local/ps3dev/libpsl1ght/ppu/lib/librsx.a(commands.o)
                0x0000000000013f40                .rsxSetBlendFunc
 *fill*         0x000000000001400c        0x4 60000000
 .text.rsxSetBlendEquation
                0x0000000000014010       0xa4 /usr/local/ps3dev/libpsl1ght/ppu/lib/librsx.a(commands.o)
                0x0000000000014010                .rsxSetBlendEquation
 *fill*         0x00000000000140b4        0x4 60000000
 .text.rsxSetBlendColor
                0x00000000000140b8       0x94 /usr/local/ps3dev/libpsl1ght/ppu/lib/librsx.a(commands.o)
                0x00000000000140b8                .rsxSetBlendColor
 *fill*         0x000000000001414c        0x4 60000000
 .text.rsxSetBlendEnable
                0x0000000000014150       0x94 /usr/local/ps3dev/libpsl1ght/ppu/lib/librsx.a(commands.o)
                0x0000000000014150                .rsxSetBlendEnable
 *fill*         0x00000000000141e4        0x4 60000000
 .text.rsxSetTransformBranchBits
                0x00000000000141e8       0x94 /usr/local/ps3dev/libpsl1ght/ppu/lib/librsx.a(commands.o)
                0x00000000000141e8                .rsxSetTransformBranchBits
 *fill*         0x000000000001427c        0x4 60000000
 .text.rsxSetTransferData
                0x0000000000014280      0x1c4 /usr/local/ps3dev/libpsl1ght/ppu/lib/librsx.a(commands.o)
                0x0000000000014280                .rsxSetTransferData
 *fill*         0x0000000000014444        0x4 60000000
 .text.rsxSetTransferDataMode
                0x0000000000014448       0xcc /usr/local/ps3dev/libpsl1ght/ppu/lib/librsx.a(commands.o)
                0x0000000000014448                .rsxSetTransferDataMode
 *fill*         0x0000000000014514        0x4 60000000
 .text.rsxSetTransferDataOffset
                0x0000000000014518       0xcc /usr/local/ps3dev/libpsl1ght/ppu/lib/librsx.a(commands.o)
                0x0000000000014518                .rsxSetTransferDataOffset
 *fill*         0x00000000000145e4        0x4 60000000
 .text.rsxSetTransferDataFormat
                0x00000000000145e8      0x104 /usr/local/ps3dev/libpsl1ght/ppu/lib/librsx.a(commands.o)
                0x00000000000145e8                .rsxSetTransferDataFormat
 *fill*         0x00000000000146ec        0x4 60000000
 .text.rsxSetTransferImage
                0x00000000000146f0      0x368 /usr/local/ps3dev/libpsl1ght/ppu/lib/librsx.a(commands.o)
                0x00000000000146f0                .rsxSetTransferImage
 .text.rsxSetTransferScaleMode
                0x0000000000014a58      0x140 /usr/local/ps3dev/libpsl1ght/ppu/lib/librsx.a(commands.o)
                0x0000000000014a58                .rsxSetTransferScaleMode
 .text.rsxSetTransferScaleSurface
                0x0000000000014b98      0x26c /usr/local/ps3dev/libpsl1ght/ppu/lib/librsx.a(commands.o)
                0x0000000000014b98                .rsxSetTransferScaleSurface
 *fill*         0x0000000000014e04        0x4 60000000
 .text.rsxSetTimeStamp
                0x0000000000014e08       0x94 /usr/local/ps3dev/libpsl1ght/ppu/lib/librsx.a(commands.o)
                0x0000000000014e08                .rsxSetTimeStamp
 .text          0x0000000000014e9c        0x0 /usr/local/ps3dev/libpsl1ght/ppu/lib/librsx.a(mm.o)
 *fill*         0x0000000000014e9c        0x4 60000000
 .text.rsxHeapInit
                0x0000000000014ea0       0x78 /usr/local/ps3dev/libpsl1ght/ppu/lib/librsx.a(mm.o)
                0x0000000000014ea0                .rsxHeapInit
 .text.rsxMemalign
                0x0000000000014f18       0x4c /usr/local/ps3dev/libpsl1ght/ppu/lib/librsx.a(mm.o)
                0x0000000000014f18                .rsxMemalign
 *fill*         0x0000000000014f64        0x4 60000000
 .text.rsxMalloc
                0x0000000000014f68       0x4c /usr/local/ps3dev/libpsl1ght/ppu/lib/librsx.a(mm.o)
                0x0000000000014f68                .rsxMalloc
 *fill*         0x0000000000014fb4        0x4 60000000
 .text.rsxFree  0x0000000000014fb8       0x48 /usr/local/ps3dev/libpsl1ght/ppu/lib/librsx.a(mm.o)
                0x0000000000014fb8                .rsxFree
 .text          0x0000000000015000        0x0 /usr/local/ps3dev/libpsl1ght/ppu/lib/librsx.a(vertex_program.o)
 .text.rsxVertexProgramGetUCode
                0x0000000000015000       0x18 /usr/local/ps3dev/libpsl1ght/ppu/lib/librsx.a(vertex_program.o)
                0x0000000000015000                .rsxVertexProgramGetUCode
 .text.rsxVertexProgramGetConsts
                0x0000000000015018       0x18 /usr/local/ps3dev/libpsl1ght/ppu/lib/librsx.a(vertex_program.o)
                0x0000000000015018                .rsxVertexProgramGetConsts
 .text.rsxVertexProgramGetConst
                0x0000000000015030       0xdc /usr/local/ps3dev/libpsl1ght/ppu/lib/librsx.a(vertex_program.o)
                0x0000000000015030                .rsxVertexProgramGetConst
 *fill*         0x000000000001510c        0x4 60000000
 .text.rsxVertexProgramGetAttribs
                0x0000000000015110       0x18 /usr/local/ps3dev/libpsl1ght/ppu/lib/librsx.a(vertex_program.o)
                0x0000000000015110                .rsxVertexProgramGetAttribs
 .text.rsxVertexProgramGetAttrib
                0x0000000000015128       0xe4 /usr/local/ps3dev/libpsl1ght/ppu/lib/librsx.a(vertex_program.o)
                0x0000000000015128                .rsxVertexProgramGetAttrib
 .text          0x000000000001520c        0x0 /usr/local/ps3dev/libpsl1ght/ppu/lib/librsx.a(fragment_program.o)
 *fill*         0x000000000001520c        0x4 60000000
 .text.rsxFragmentProgramGetUCode
                0x0000000000015210       0x24 /usr/local/ps3dev/libpsl1ght/ppu/lib/librsx.a(fragment_program.o)
                0x0000000000015210                .rsxFragmentProgramGetUCode
 *fill*         0x0000000000015234        0x4 60000000
 .text.rsxFragmentProgramGetConsts
                0x0000000000015238       0x18 /usr/local/ps3dev/libpsl1ght/ppu/lib/librsx.a(fragment_program.o)
                0x0000000000015238                .rsxFragmentProgramGetConsts
 .text.rsxFragmentProgramGetConst
                0x0000000000015250       0xdc /usr/local/ps3dev/libpsl1ght/ppu/lib/librsx.a(fragment_program.o)
                0x0000000000015250                .rsxFragmentProgramGetConst
 *fill*         0x000000000001532c        0x4 60000000
 .text.rsxFragmentProgramGetAttribs
                0x0000000000015330       0x18 /usr/local/ps3dev/libpsl1ght/ppu/lib/librsx.a(fragment_program.o)
                0x0000000000015330                .rsxFragmentProgramGetAttribs
 .text.rsxFragmentProgramGetAttrib
                0x0000000000015348       0xe4 /usr/local/ps3dev/libpsl1ght/ppu/lib/librsx.a(fragment_program.o)
                0x0000000000015348                .rsxFragmentProgramGetAttrib
 *fill*         0x000000000001542c        0x4 60000000
 .text.rsxFragmentProgramGetConstOffsetTable
                0x0000000000015430       0x14 /usr/local/ps3dev/libpsl1ght/ppu/lib/librsx.a(fragment_program.o)
                0x0000000000015430                .rsxFragmentProgramGetConstOffsetTable
 .text          0x0000000000015444        0x0 /usr/local/ps3dev/libpsl1ght/ppu/lib/libgcm_sys.a(sprx.o)
 .text          0x0000000000015444        0x0 /usr/local/ps3dev/libpsl1ght/ppu/lib/libio.a(sprx.o)
 .text          0x0000000000015444        0x0 /usr/local/ps3dev/libpsl1ght/ppu/lib/libsysutil.a(sprx.o)
 .text          0x0000000000015444        0x0 /usr/local/ps3dev/libpsl1ght/ppu/lib/libsysutil.a(sysutil_wrapper.o)
 *fill*         0x0000000000015444        0x4 60000000
 .text.sysUtilRegisterCallback
                0x0000000000015448       0x34 /usr/local/ps3dev/libpsl1ght/ppu/lib/libsysutil.a(sysutil_wrapper.o)
                0x0000000000015448                .sysUtilRegisterCallback
 *fill*         0x000000000001547c        0x4 60000000
 .text.msgDialogOpen
                0x0000000000015480       0x34 /usr/local/ps3dev/libpsl1ght/ppu/lib/libsysutil.a(sysutil_wrapper.o)
                0x0000000000015480                .msgDialogOpen
 *fill*         0x00000000000154b4        0x4 60000000
 .text.msgDialogOpen2
                0x00000000000154b8       0x34 /usr/local/ps3dev/libpsl1ght/ppu/lib/libsysutil.a(sysutil_wrapper.o)
                0x00000000000154b8                .msgDialogOpen2
 *fill*         0x00000000000154ec        0x4 60000000
 .text.msgDialogOpenErrorCode
                0x00000000000154f0       0x34 /usr/local/ps3dev/libpsl1ght/ppu/lib/libsysutil.a(sysutil_wrapper.o)
                0x00000000000154f0                .msgDialogOpenErrorCode
 *fill*         0x0000000000015524        0x4 60000000
 .text.sysSaveListLoad2
                0x0000000000015528       0x3c /usr/local/ps3dev/libpsl1ght/ppu/lib/libsysutil.a(sysutil_wrapper.o)
                0x0000000000015528                .sysSaveListLoad2
 *fill*         0x0000000000015564        0x4 60000000
 .text.sysSaveListSave2
                0x0000000000015568       0x3c /usr/local/ps3dev/libpsl1ght/ppu/lib/libsysutil.a(sysutil_wrapper.o)
                0x0000000000015568                .sysSaveListSave2
 *fill*         0x00000000000155a4        0x4 60000000
 .text.sysSaveListAutoLoad
                0x00000000000155a8       0x44 /usr/local/ps3dev/libpsl1ght/ppu/lib/libsysutil.a(sysutil_wrapper.o)
                0x00000000000155a8                .sysSaveListAutoLoad
 *fill*         0x00000000000155ec        0x4 60000000
 .text.sysSaveListAutoSave
                0x00000000000155f0       0x44 /usr/local/ps3dev/libpsl1ght/ppu/lib/libsysutil.a(sysutil_wrapper.o)
                0x00000000000155f0                .sysSaveListAutoSave
 *fill*         0x0000000000015634        0x4 60000000
 .text.sysSaveFixedLoad2
                0x0000000000015638       0x3c /usr/local/ps3dev/libpsl1ght/ppu/lib/libsysutil.a(sysutil_wrapper.o)
                0x0000000000015638                .sysSaveFixedLoad2
 *fill*         0x0000000000015674        0x4 60000000
 .text.sysSaveFixedSave2
                0x0000000000015678       0x3c /usr/local/ps3dev/libpsl1ght/ppu/lib/libsysutil.a(sysutil_wrapper.o)
                0x0000000000015678                .sysSaveFixedSave2
 *fill*         0x00000000000156b4        0x4 60000000
 .text.sysSaveAutoLoad2
                0x00000000000156b8       0x38 /usr/local/ps3dev/libpsl1ght/ppu/lib/libsysutil.a(sysutil_wrapper.o)
                0x00000000000156b8                .sysSaveAutoLoad2
 .text.sysSaveAutoSave2
                0x00000000000156f0       0x38 /usr/local/ps3dev/libpsl1ght/ppu/lib/libsysutil.a(sysutil_wrapper.o)
                0x00000000000156f0                .sysSaveAutoSave2
 .text.sysDiscRegisterDiscChangeCallback
                0x0000000000015728       0x38 /usr/local/ps3dev/libpsl1ght/ppu/lib/libsysutil.a(sysutil_wrapper.o)
                0x0000000000015728                .sysDiscRegisterDiscChangeCallback
 .text          0x0000000000015760        0x0 /usr/local/ps3dev/libpsl1ght/ppu/lib/librt.a(sbrk.o)
 .text.sbrk_init
                0x0000000000015760       0xc4 /usr/local/ps3dev/libpsl1ght/ppu/lib/librt.a(sbrk.o)
 *fill*         0x0000000000015824        0x4 60000000
 .text.sbrk_deinit
                0x0000000000015828       0xbc /usr/local/ps3dev/libpsl1ght/ppu/lib/librt.a(sbrk.o)
 *fill*         0x00000000000158e4        0x4 60000000
 .text.__librt_sbrk_r
                0x00000000000158e8      0x324 /usr/local/ps3dev/libpsl1ght/ppu/lib/librt.a(sbrk.o)
                0x00000000000158e8                .__librt_sbrk_r
 .text          0x0000000000015c0c        0x0 /usr/local/ps3dev/libpsl1ght/ppu/lib/librt.a(exit.o)
 *fill*         0x0000000000015c0c        0x4 60000000
 .text.__librt_exit
                0x0000000000015c10       0x30 /usr/local/ps3dev/libpsl1ght/ppu/lib/librt.a(exit.o)
                0x0000000000015c10                .__librt_exit
 .text          0x0000000000015c40        0x0 /usr/local/ps3dev/libpsl1ght/ppu/lib/librt.a(close.o)
 .text.__librt_close_r
                0x0000000000015c40       0x8c /usr/local/ps3dev/libpsl1ght/ppu/lib/librt.a(close.o)
                0x0000000000015c40                .__librt_close_r
 .text          0x0000000000015ccc        0x0 /usr/local/ps3dev/libpsl1ght/ppu/lib/librt.a(lseek.o)
 *fill*         0x0000000000015ccc        0x4 60000000
 .text.__librt_lseek_r
                0x0000000000015cd0       0x8c /usr/local/ps3dev/libpsl1ght/ppu/lib/librt.a(lseek.o)
                0x0000000000015cd0                .__librt_lseek_r
 *fill*         0x0000000000015d5c        0x4 60000000
 .text.__librt_lseek64_r
                0x0000000000015d60       0x8c /usr/local/ps3dev/libpsl1ght/ppu/lib/librt.a(lseek.o)
                0x0000000000015d60                .__librt_lseek64_r
 .text          0x0000000000015dec        0x0 /usr/local/ps3dev/libpsl1ght/ppu/lib/librt.a(read.o)
 *fill*         0x0000000000015dec        0x4 60000000
 .text.__librt_read_r
                0x0000000000015df0      0x11c /usr/local/ps3dev/libpsl1ght/ppu/lib/librt.a(read.o)
                0x0000000000015df0                .__librt_read_r
 .text          0x0000000000015f0c        0x0 /usr/local/ps3dev/libpsl1ght/ppu/lib/librt.a(open.o)
 *fill*         0x0000000000015f0c        0x4 60000000
 .text.__librt_open_r
                0x0000000000015f10      0x180 /usr/local/ps3dev/libpsl1ght/ppu/lib/librt.a(open.o)
                0x0000000000015f10                .__librt_open_r
 .text          0x0000000000016090        0x0 /usr/local/ps3dev/libpsl1ght/ppu/lib/librt.a(sleep.o)
 .text.__librt_usleep_r
                0x0000000000016090       0x50 /usr/local/ps3dev/libpsl1ght/ppu/lib/librt.a(sleep.o)
                0x0000000000016090                .__librt_usleep_r
 .text.__librt_sleep_r
                0x00000000000160e0       0x8c /usr/local/ps3dev/libpsl1ght/ppu/lib/librt.a(sleep.o)
                0x00000000000160e0                .__librt_sleep_r
 .text          0x000000000001616c        0x0 /usr/local/ps3dev/libpsl1ght/ppu/lib/librt.a(write.o)
 *fill*         0x000000000001616c        0x4 60000000
 .text.__librt_write_r
                0x0000000000016170      0x11c /usr/local/ps3dev/libpsl1ght/ppu/lib/librt.a(write.o)
                0x0000000000016170                .__librt_write_r
 .text          0x000000000001628c        0x0 /usr/local/ps3dev/libpsl1ght/ppu/lib/librt.a(fstat.o)
 *fill*         0x000000000001628c        0x4 60000000
 .text.__librt_fstat_r
                0x0000000000016290       0xd0 /usr/local/ps3dev/libpsl1ght/ppu/lib/librt.a(fstat.o)
                0x0000000000016290                .__librt_fstat_r
 .text.__librt_fstat64_r
                0x0000000000016360       0xd0 /usr/local/ps3dev/libpsl1ght/ppu/lib/librt.a(fstat.o)
                0x0000000000016360                .__librt_fstat64_r
 .text.__librt_stat_r
                0x0000000000016430       0xd0 /usr/local/ps3dev/libpsl1ght/ppu/lib/librt.a(fstat.o)
                0x0000000000016430                .__librt_stat_r
 .text.__librt_stat64_r
                0x0000000000016500       0xd0 /usr/local/ps3dev/libpsl1ght/ppu/lib/librt.a(fstat.o)
                0x0000000000016500                .__librt_stat64_r
 .text          0x00000000000165d0        0x0 /usr/local/ps3dev/libpsl1ght/ppu/lib/librt.a(socket.o)
 .text.accept   0x00000000000165d0       0xa0 /usr/local/ps3dev/libpsl1ght/ppu/lib/librt.a(socket.o)
                0x00000000000165d0                .accept
 .text.bind     0x0000000000016670       0x48 /usr/local/ps3dev/libpsl1ght/ppu/lib/librt.a(socket.o)
                0x0000000000016670                .bind
 .text.connect  0x00000000000166b8       0x48 /usr/local/ps3dev/libpsl1ght/ppu/lib/librt.a(socket.o)
                0x00000000000166b8                .connect
 .text.listen   0x0000000000016700       0x48 /usr/local/ps3dev/libpsl1ght/ppu/lib/librt.a(socket.o)
                0x0000000000016700                .listen
 .text.socket   0x0000000000016748       0x54 /usr/local/ps3dev/libpsl1ght/ppu/lib/librt.a(socket.o)
                0x0000000000016748                .socket
 *fill*         0x000000000001679c        0x4 60000000
 .text.send     0x00000000000167a0       0x50 /usr/local/ps3dev/libpsl1ght/ppu/lib/librt.a(socket.o)
                0x00000000000167a0                .send
 .text.sendto   0x00000000000167f0       0x48 /usr/local/ps3dev/libpsl1ght/ppu/lib/librt.a(socket.o)
                0x00000000000167f0                .sendto
 .text.recv     0x0000000000016838       0x50 /usr/local/ps3dev/libpsl1ght/ppu/lib/librt.a(socket.o)
                0x0000000000016838                .recv
 .text.recvfrom
                0x0000000000016888       0x98 /usr/local/ps3dev/libpsl1ght/ppu/lib/librt.a(socket.o)
                0x0000000000016888                .recvfrom
 .text.shutdown
                0x0000000000016920       0x48 /usr/local/ps3dev/libpsl1ght/ppu/lib/librt.a(socket.o)
                0x0000000000016920                .shutdown
 .text.inet_aton
                0x0000000000016968       0xb8 /usr/local/ps3dev/libpsl1ght/ppu/lib/librt.a(socket.o)
                0x0000000000016968                .inet_aton
 .text.inet_pton
                0x0000000000016a20       0x54 /usr/local/ps3dev/libpsl1ght/ppu/lib/librt.a(socket.o)
                0x0000000000016a20                .inet_pton
 *fill*         0x0000000000016a74        0x4 60000000
 .text.select   0x0000000000016a78       0x3c /usr/local/ps3dev/libpsl1ght/ppu/lib/librt.a(socket.o)
                0x0000000000016a78                .select
 *fill*         0x0000000000016ab4        0x4 60000000
 .text.closesocket
                0x0000000000016ab8       0x48 /usr/local/ps3dev/libpsl1ght/ppu/lib/librt.a(socket.o)
                0x0000000000016ab8                .closesocket
 .text          0x0000000000016b00        0x0 /usr/local/ps3dev/libpsl1ght/ppu/lib/librt.a(lock.o)
 .text.__librt_sys_lwmutex_create_r
                0x0000000000016b00       0x38 /usr/local/ps3dev/libpsl1ght/ppu/lib/librt.a(lock.o)
                0x0000000000016b00                .__librt_sys_lwmutex_create_r
 .text.__librt_sys_lwmutex_destroy_r
                0x0000000000016b38       0x34 /usr/local/ps3dev/libpsl1ght/ppu/lib/librt.a(lock.o)
                0x0000000000016b38                .__librt_sys_lwmutex_destroy_r
 *fill*         0x0000000000016b6c        0x4 60000000
 .text.__librt_sys_lwmutex_lock_r
                0x0000000000016b70       0x38 /usr/local/ps3dev/libpsl1ght/ppu/lib/librt.a(lock.o)
                0x0000000000016b70                .__librt_sys_lwmutex_lock_r
 .text.__librt_sys_lwmutex_trylock_r
                0x0000000000016ba8       0x34 /usr/local/ps3dev/libpsl1ght/ppu/lib/librt.a(lock.o)
                0x0000000000016ba8                .__librt_sys_lwmutex_trylock_r
 *fill*         0x0000000000016bdc        0x4 60000000
 .text.__librt_sys_lwmutex_unlock_r
                0x0000000000016be0       0x34 /usr/local/ps3dev/libpsl1ght/ppu/lib/librt.a(lock.o)
                0x0000000000016be0                .__librt_sys_lwmutex_unlock_r
 .text          0x0000000000016c14        0x0 /usr/local/ps3dev/libpsl1ght/ppu/lib/librt.a(dirent.o)
 *fill*         0x0000000000016c14        0x4 60000000
 .text.readdir_i
                0x0000000000016c18      0x10c /usr/local/ps3dev/libpsl1ght/ppu/lib/librt.a(dirent.o)
 *fill*         0x0000000000016d24        0x4 60000000
 .text.__librt_opendir_r
                0x0000000000016d28      0x144 /usr/local/ps3dev/libpsl1ght/ppu/lib/librt.a(dirent.o)
                0x0000000000016d28                .__librt_opendir_r
 *fill*         0x0000000000016e6c        0x4 60000000
 .text.__librt_readdir_r
                0x0000000000016e70       0x80 /usr/local/ps3dev/libpsl1ght/ppu/lib/librt.a(dirent.o)
                0x0000000000016e70                .__librt_readdir_r
 .text.__librt_readdir_r_r
                0x0000000000016ef0       0x54 /usr/local/ps3dev/libpsl1ght/ppu/lib/librt.a(dirent.o)
                0x0000000000016ef0                .__librt_readdir_r_r
 *fill*         0x0000000000016f44        0x4 60000000
 .text.__librt_closedir_r
                0x0000000000016f48       0x84 /usr/local/ps3dev/libpsl1ght/ppu/lib/librt.a(dirent.o)
                0x0000000000016f48                .__librt_closedir_r
 *fill*         0x0000000000016fcc        0x4 60000000
 .text.__librt_telldir_r
                0x0000000000016fd0       0x24 /usr/local/ps3dev/libpsl1ght/ppu/lib/librt.a(dirent.o)
                0x0000000000016fd0                .__librt_telldir_r
 *fill*         0x0000000000016ff4        0x4 60000000
 .text.__librt_rewinddir_r
                0x0000000000016ff8       0x18 /usr/local/ps3dev/libpsl1ght/ppu/lib/librt.a(dirent.o)
                0x0000000000016ff8                .__librt_rewinddir_r
 .text.__librt_seekdir_r
                0x0000000000017010       0x18 /usr/local/ps3dev/libpsl1ght/ppu/lib/librt.a(dirent.o)
                0x0000000000017010                .__librt_seekdir_r
 .text          0x0000000000017028        0x0 /usr/local/ps3dev/libpsl1ght/ppu/lib/librt.a(mkdir.o)
 .text.__librt_mkdir_r
                0x0000000000017028       0x60 /usr/local/ps3dev/libpsl1ght/ppu/lib/librt.a(mkdir.o)
                0x0000000000017028                .__librt_mkdir_r
 .text          0x0000000000017088        0x0 /usr/local/ps3dev/libpsl1ght/ppu/lib/librt.a(times.o)
 .text.__librt_times_r
                0x0000000000017088       0x1c /usr/local/ps3dev/libpsl1ght/ppu/lib/librt.a(times.o)
                0x0000000000017088                .__librt_times_r
 .text          0x00000000000170a4        0x0 /usr/local/ps3dev/libpsl1ght/ppu/lib/librt.a(umask.o)
 *fill*         0x00000000000170a4        0x4 60000000
 .text.__librt_umask_r
                0x00000000000170a8       0x20 /usr/local/ps3dev/libpsl1ght/ppu/lib/librt.a(umask.o)
                0x00000000000170a8                .__librt_umask_r
 .text          0x00000000000170c8        0x0 /usr/local/ps3dev/libpsl1ght/ppu/lib/librt.a(lv2errno.o)
 .text.lv2error
                0x00000000000170c8      0x3dc /usr/local/ps3dev/libpsl1ght/ppu/lib/librt.a(lv2errno.o)
                0x00000000000170c8                .lv2error
 *fill*         0x00000000000174a4        0x4 60000000
 .text.lv2errno
                0x00000000000174a8       0x68 /usr/local/ps3dev/libpsl1ght/ppu/lib/librt.a(lv2errno.o)
                0x00000000000174a8                .lv2errno
 .text.lv2errno_r
                0x0000000000017510       0x58 /usr/local/ps3dev/libpsl1ght/ppu/lib/librt.a(lv2errno.o)
                0x0000000000017510                .lv2errno_r
 .text          0x0000000000017568        0x0 /usr/local/ps3dev/libpsl1ght/ppu/lib/librt.a(heap.o)
 .text.heapInit
                0x0000000000017568       0xe8 /usr/local/ps3dev/libpsl1ght/ppu/lib/librt.a(heap.o)
                0x0000000000017568                .heapInit
 .text.heapAllocate
                0x0000000000017650      0x174 /usr/local/ps3dev/libpsl1ght/ppu/lib/librt.a(heap.o)
                0x0000000000017650                .heapAllocate
 *fill*         0x00000000000177c4        0x4 60000000
 .text.heapAllocateAligned
                0x00000000000177c8      0x224 /usr/local/ps3dev/libpsl1ght/ppu/lib/librt.a(heap.o)
                0x00000000000177c8                .heapAllocateAligned
 *fill*         0x00000000000179ec        0x4 60000000
 .text.heapFree
                0x00000000000179f0      0x224 /usr/local/ps3dev/libpsl1ght/ppu/lib/librt.a(heap.o)
                0x00000000000179f0                .heapFree
 .text          0x0000000000017c14        0x0 /usr/local/ps3dev/libpsl1ght/ppu/lib/librt.a(chmod.o)
 *fill*         0x0000000000017c14        0x4 60000000
 .text.__librt_chmod_r
                0x0000000000017c18       0x54 /usr/local/ps3dev/libpsl1ght/ppu/lib/librt.a(chmod.o)
                0x0000000000017c18                .__librt_chmod_r
 .text          0x0000000000017c6c        0x0 /usr/local/ps3dev/libpsl1ght/ppu/lib/librt.a(rmdir.o)
 *fill*         0x0000000000017c6c        0x4 60000000
 .text.__librt_rmdir_r
                0x0000000000017c70       0x50 /usr/local/ps3dev/libpsl1ght/ppu/lib/librt.a(rmdir.o)
                0x0000000000017c70                .__librt_rmdir_r
 .text          0x0000000000017cc0        0x0 /usr/local/ps3dev/libpsl1ght/ppu/lib/librt.a(isatty.o)
 .text.__librt_isatty_r
                0x0000000000017cc0       0x2c /usr/local/ps3dev/libpsl1ght/ppu/lib/librt.a(isatty.o)
                0x0000000000017cc0                .__librt_isatty_r
 .text          0x0000000000017cec        0x0 /usr/local/ps3dev/libpsl1ght/ppu/lib/librt.a(gettod.o)
 *fill*         0x0000000000017cec        0x4 60000000
 .text.__librt_gettod_r
                0x0000000000017cf0       0xb8 /usr/local/ps3dev/libpsl1ght/ppu/lib/librt.a(gettod.o)
                0x0000000000017cf0                .__librt_gettod_r
 .text          0x0000000000017da8        0x0 /usr/local/ps3dev/libpsl1ght/ppu/lib/librt.a(settod.o)
 .text.__librt_settod_r
                0x0000000000017da8       0x58 /usr/local/ps3dev/libpsl1ght/ppu/lib/librt.a(settod.o)
                0x0000000000017da8                .__librt_settod_r
 .text          0x0000000000017e00        0x0 /usr/local/ps3dev/libpsl1ght/ppu/lib/liblv2.a(sprx.o)
 .text          0x0000000000017e00        0x0 /usr/local/ps3dev/ppu/lib/gcc/powerpc64-ps3-elf/4.5.2/../../../../powerpc64-ps3-elf/lib/libsysbase.a(syscalls.o)
 .text          0x0000000000017e00        0x0 /usr/local/ps3dev/ppu/lib/gcc/powerpc64-ps3-elf/4.5.2/../../../../powerpc64-ps3-elf/lib/libsysbase.a(sleep.o)
 .text.usleep   0x0000000000017e00       0x84 /usr/local/ps3dev/ppu/lib/gcc/powerpc64-ps3-elf/4.5.2/../../../../powerpc64-ps3-elf/lib/libsysbase.a(sleep.o)
                0x0000000000017e00                .usleep
 *fill*         0x0000000000017e84        0x4 60000000
 .text.sleep    0x0000000000017e88       0x98 /usr/local/ps3dev/ppu/lib/gcc/powerpc64-ps3-elf/4.5.2/../../../../powerpc64-ps3-elf/lib/libsysbase.a(sleep.o)
                0x0000000000017e88                .sleep
 .text          0x0000000000017f20        0x0 /usr/local/ps3dev/ppu/lib/gcc/powerpc64-ps3-elf/4.5.2/../../../../powerpc64-ps3-elf/lib/libc.a(lib_a-atexit.o)
 .text.atexit   0x0000000000017f20       0x40 /usr/local/ps3dev/ppu/lib/gcc/powerpc64-ps3-elf/4.5.2/../../../../powerpc64-ps3-elf/lib/libc.a(lib_a-atexit.o)
                0x0000000000017f20                .atexit
 .text          0x0000000000017f60        0x0 /usr/local/ps3dev/ppu/lib/gcc/powerpc64-ps3-elf/4.5.2/../../../../powerpc64-ps3-elf/lib/libc.a(lib_a-errno.o)
 .text.__errno  0x0000000000017f60       0x30 /usr/local/ps3dev/ppu/lib/gcc/powerpc64-ps3-elf/4.5.2/../../../../powerpc64-ps3-elf/lib/libc.a(lib_a-errno.o)
                0x0000000000017f60                .__errno
 .text          0x0000000000017f90        0x0 /usr/local/ps3dev/ppu/lib/gcc/powerpc64-ps3-elf/4.5.2/../../../../powerpc64-ps3-elf/lib/libc.a(lib_a-exit.o)
 .text.exit     0x0000000000017f90       0x68 /usr/local/ps3dev/ppu/lib/gcc/powerpc64-ps3-elf/4.5.2/../../../../powerpc64-ps3-elf/lib/libc.a(lib_a-exit.o)
                0x0000000000017f90                .exit
 .text          0x0000000000017ff8        0x0 /usr/local/ps3dev/ppu/lib/gcc/powerpc64-ps3-elf/4.5.2/../../../../powerpc64-ps3-elf/lib/libc.a(lib_a-getreent.o)
 .text.__getreent
                0x0000000000017ff8      0x1f0 /usr/local/ps3dev/ppu/lib/gcc/powerpc64-ps3-elf/4.5.2/../../../../powerpc64-ps3-elf/lib/libc.a(lib_a-getreent.o)
                0x0000000000017ff8                .__getreent
 .text          0x00000000000181e8        0x0 /usr/local/ps3dev/ppu/lib/gcc/powerpc64-ps3-elf/4.5.2/../../../../powerpc64-ps3-elf/lib/libc.a(lib_a-impure.o)
 .text          0x00000000000181e8        0x0 /usr/local/ps3dev/ppu/lib/gcc/powerpc64-ps3-elf/4.5.2/../../../../powerpc64-ps3-elf/lib/libc.a(lib_a-malign.o)
 .text.memalign
                0x00000000000181e8       0x58 /usr/local/ps3dev/ppu/lib/gcc/powerpc64-ps3-elf/4.5.2/../../../../powerpc64-ps3-elf/lib/libc.a(lib_a-malign.o)
                0x00000000000181e8                .memalign
 .text          0x0000000000018240        0x0 /usr/local/ps3dev/ppu/lib/gcc/powerpc64-ps3-elf/4.5.2/../../../../powerpc64-ps3-elf/lib/libc.a(lib_a-malignr.o)
 .text._memalign_r
                0x0000000000018240      0x214 /usr/local/ps3dev/ppu/lib/gcc/powerpc64-ps3-elf/4.5.2/../../../../powerpc64-ps3-elf/lib/libc.a(lib_a-malignr.o)
                0x0000000000018240                ._memalign_r
 .text          0x0000000000018454        0x0 /usr/local/ps3dev/ppu/lib/gcc/powerpc64-ps3-elf/4.5.2/../../../../powerpc64-ps3-elf/lib/libc.a(lib_a-malloc.o)
 *fill*         0x0000000000018454        0x4 60000000
 .text.malloc   0x0000000000018458       0x48 /usr/local/ps3dev/ppu/lib/gcc/powerpc64-ps3-elf/4.5.2/../../../../powerpc64-ps3-elf/lib/libc.a(lib_a-malloc.o)
                0x0000000000018458                .malloc
 .text.free     0x00000000000184a0       0x48 /usr/local/ps3dev/ppu/lib/gcc/powerpc64-ps3-elf/4.5.2/../../../../powerpc64-ps3-elf/lib/libc.a(lib_a-malloc.o)
                0x00000000000184a0                .free
 .text          0x00000000000184e8        0x0 /usr/local/ps3dev/ppu/lib/gcc/powerpc64-ps3-elf/4.5.2/../../../../powerpc64-ps3-elf/lib/libc.a(lib_a-mallocr.o)
 .text._malloc_r
                0x00000000000184e8      0x944 /usr/local/ps3dev/ppu/lib/gcc/powerpc64-ps3-elf/4.5.2/../../../../powerpc64-ps3-elf/lib/libc.a(lib_a-mallocr.o)
                0x00000000000184e8                ._malloc_r
 .text          0x0000000000018e2c        0x0 /usr/local/ps3dev/ppu/lib/gcc/powerpc64-ps3-elf/4.5.2/../../../../powerpc64-ps3-elf/lib/libc.a(lib_a-memset.o)
 *fill*         0x0000000000018e2c        0x4 60000000
 .text.memset   0x0000000000018e30      0x130 /usr/local/ps3dev/ppu/lib/gcc/powerpc64-ps3-elf/4.5.2/../../../../powerpc64-ps3-elf/lib/libc.a(lib_a-memset.o)
                0x0000000000018e30                .memset
 .text          0x0000000000018f60        0x0 /usr/local/ps3dev/ppu/lib/gcc/powerpc64-ps3-elf/4.5.2/../../../../powerpc64-ps3-elf/lib/libc.a(lib_a-mlock.o)
 .text.__malloc_lock
                0x0000000000018f60       0x34 /usr/local/ps3dev/ppu/lib/gcc/powerpc64-ps3-elf/4.5.2/../../../../powerpc64-ps3-elf/lib/libc.a(lib_a-mlock.o)
                0x0000000000018f60                .__malloc_lock
 *fill*         0x0000000000018f94        0x4 60000000
 .text.__malloc_unlock
                0x0000000000018f98       0x34 /usr/local/ps3dev/ppu/lib/gcc/powerpc64-ps3-elf/4.5.2/../../../../powerpc64-ps3-elf/lib/libc.a(lib_a-mlock.o)
                0x0000000000018f98                .__malloc_unlock
 .text          0x0000000000018fcc        0x0 /usr/local/ps3dev/ppu/lib/gcc/powerpc64-ps3-elf/4.5.2/../../../../powerpc64-ps3-elf/lib/libc.a(lib_a-puts.o)
 *fill*         0x0000000000018fcc        0x4 60000000
 .text._puts_r  0x0000000000018fd0      0x114 /usr/local/ps3dev/ppu/lib/gcc/powerpc64-ps3-elf/4.5.2/../../../../powerpc64-ps3-elf/lib/libc.a(lib_a-puts.o)
                0x0000000000018fd0                ._puts_r
 *fill*         0x00000000000190e4        0x4 60000000
 .text.puts     0x00000000000190e8       0x40 /usr/local/ps3dev/ppu/lib/gcc/powerpc64-ps3-elf/4.5.2/../../../../powerpc64-ps3-elf/lib/libc.a(lib_a-puts.o)
                0x00000000000190e8                .puts
 .text          0x0000000000019128        0x0 /usr/local/ps3dev/ppu/lib/gcc/powerpc64-ps3-elf/4.5.2/../../../../powerpc64-ps3-elf/lib/libc.a(lib_a-sscanf.o)
 .text.sscanf   0x0000000000019128       0xa8 /usr/local/ps3dev/ppu/lib/gcc/powerpc64-ps3-elf/4.5.2/../../../../powerpc64-ps3-elf/lib/libc.a(lib_a-sscanf.o)
                0x0000000000019128                .sscanf
 .text._sscanf_r
                0x00000000000191d0       0xa8 /usr/local/ps3dev/ppu/lib/gcc/powerpc64-ps3-elf/4.5.2/../../../../powerpc64-ps3-elf/lib/libc.a(lib_a-sscanf.o)
                0x00000000000191d0                ._sscanf_r
 .text          0x0000000000019278        0x0 /usr/local/ps3dev/ppu/lib/gcc/powerpc64-ps3-elf/4.5.2/../../../../powerpc64-ps3-elf/lib/libc.a(lib_a-stdio.o)
 .text.__sread  0x0000000000019278       0x80 /usr/local/ps3dev/ppu/lib/gcc/powerpc64-ps3-elf/4.5.2/../../../../powerpc64-ps3-elf/lib/libc.a(lib_a-stdio.o)
                0x0000000000019278                .__sread
 .text.__seofread
                0x00000000000192f8       0x14 /usr/local/ps3dev/ppu/lib/gcc/powerpc64-ps3-elf/4.5.2/../../../../powerpc64-ps3-elf/lib/libc.a(lib_a-stdio.o)
                0x00000000000192f8                .__seofread
 *fill*         0x000000000001930c        0x4 60000000
 .text.__swrite
                0x0000000000019310       0xbc /usr/local/ps3dev/ppu/lib/gcc/powerpc64-ps3-elf/4.5.2/../../../../powerpc64-ps3-elf/lib/libc.a(lib_a-stdio.o)
                0x0000000000019310                .__swrite
 *fill*         0x00000000000193cc        0x4 60000000
 .text.__sseek  0x00000000000193d0       0x88 /usr/local/ps3dev/ppu/lib/gcc/powerpc64-ps3-elf/4.5.2/../../../../powerpc64-ps3-elf/lib/libc.a(lib_a-stdio.o)
                0x00000000000193d0                .__sseek
 .text.__sclose
                0x0000000000019458       0x3c /usr/local/ps3dev/ppu/lib/gcc/powerpc64-ps3-elf/4.5.2/../../../../powerpc64-ps3-elf/lib/libc.a(lib_a-stdio.o)
                0x0000000000019458                .__sclose
 .text          0x0000000000019494        0x0 /usr/local/ps3dev/ppu/lib/gcc/powerpc64-ps3-elf/4.5.2/../../../../powerpc64-ps3-elf/lib/libc.a(lib_a-strcasecmp.o)
 *fill*         0x0000000000019494        0x4 60000000
 .text.strcasecmp
                0x0000000000019498       0xb8 /usr/local/ps3dev/ppu/lib/gcc/powerpc64-ps3-elf/4.5.2/../../../../powerpc64-ps3-elf/lib/libc.a(lib_a-strcasecmp.o)
                0x0000000000019498                .strcasecmp
 .text          0x0000000000019550        0x0 /usr/local/ps3dev/ppu/lib/gcc/powerpc64-ps3-elf/4.5.2/../../../../powerpc64-ps3-elf/lib/libc.a(lib_a-strlen.o)
 .text.strlen   0x0000000000019550       0xe4 /usr/local/ps3dev/ppu/lib/gcc/powerpc64-ps3-elf/4.5.2/../../../../powerpc64-ps3-elf/lib/libc.a(lib_a-strlen.o)
                0x0000000000019550                .strlen
 .text          0x0000000000019634        0x0 /usr/local/ps3dev/ppu/lib/gcc/powerpc64-ps3-elf/4.5.2/../../../../powerpc64-ps3-elf/lib/libc.a(lib_a-strncpy.o)
 *fill*         0x0000000000019634        0x4 60000000
 .text.strncpy  0x0000000000019638      0x100 /usr/local/ps3dev/ppu/lib/gcc/powerpc64-ps3-elf/4.5.2/../../../../powerpc64-ps3-elf/lib/libc.a(lib_a-strncpy.o)
                0x0000000000019638                .strncpy
 .text          0x0000000000019738        0x0 /usr/local/ps3dev/ppu/lib/gcc/powerpc64-ps3-elf/4.5.2/../../../../powerpc64-ps3-elf/lib/libc.a(lib_a-svfscanf.o)
 .text.__ssvfscanf_r
                0x0000000000019738     0x18d8 /usr/local/ps3dev/ppu/lib/gcc/powerpc64-ps3-elf/4.5.2/../../../../powerpc64-ps3-elf/lib/libc.a(lib_a-svfscanf.o)
                0x0000000000019738                .__ssvfscanf_r
 .text          0x000000000001b010        0x0 /usr/local/ps3dev/ppu/lib/gcc/powerpc64-ps3-elf/4.5.2/../../../../powerpc64-ps3-elf/lib/libc.a(lib_a-__atexit.o)
 .text.__register_exitproc
                0x000000000001b010      0x188 /usr/local/ps3dev/ppu/lib/gcc/powerpc64-ps3-elf/4.5.2/../../../../powerpc64-ps3-elf/lib/libc.a(lib_a-__atexit.o)
                0x000000000001b010                .__register_exitproc
 .text          0x000000000001b198        0x0 /usr/local/ps3dev/ppu/lib/gcc/powerpc64-ps3-elf/4.5.2/../../../../powerpc64-ps3-elf/lib/libc.a(lib_a-__call_atexit.o)
 .text.__call_exitprocs
                0x000000000001b198      0x250 /usr/local/ps3dev/ppu/lib/gcc/powerpc64-ps3-elf/4.5.2/../../../../powerpc64-ps3-elf/lib/libc.a(lib_a-__call_atexit.o)
                0x000000000001b198                .__call_exitprocs
 .text          0x000000000001b3e8        0x0 /usr/local/ps3dev/ppu/lib/gcc/powerpc64-ps3-elf/4.5.2/../../../../powerpc64-ps3-elf/lib/libc.a(lib_a-ctype_.o)
 .text          0x000000000001b3e8        0x0 /usr/local/ps3dev/ppu/lib/gcc/powerpc64-ps3-elf/4.5.2/../../../../powerpc64-ps3-elf/lib/libc.a(lib_a-findfp.o)
 .text._cleanup_r
                0x000000000001b3e8       0x34 /usr/local/ps3dev/ppu/lib/gcc/powerpc64-ps3-elf/4.5.2/../../../../powerpc64-ps3-elf/lib/libc.a(lib_a-findfp.o)
                0x000000000001b3e8                ._cleanup_r
 *fill*         0x000000000001b41c        0x4 60000000
 .text.__fp_unlock
                0x000000000001b420       0x48 /usr/local/ps3dev/ppu/lib/gcc/powerpc64-ps3-elf/4.5.2/../../../../powerpc64-ps3-elf/lib/libc.a(lib_a-findfp.o)
 .text.__fp_lock
                0x000000000001b468       0x48 /usr/local/ps3dev/ppu/lib/gcc/powerpc64-ps3-elf/4.5.2/../../../../powerpc64-ps3-elf/lib/libc.a(lib_a-findfp.o)
 .text.__sfmoreglue
                0x000000000001b4b0       0x94 /usr/local/ps3dev/ppu/lib/gcc/powerpc64-ps3-elf/4.5.2/../../../../powerpc64-ps3-elf/lib/libc.a(lib_a-findfp.o)
                0x000000000001b4b0                .__sfmoreglue
 *fill*         0x000000000001b544        0x4 60000000
 .text._cleanup
                0x000000000001b548       0x18 /usr/local/ps3dev/ppu/lib/gcc/powerpc64-ps3-elf/4.5.2/../../../../powerpc64-ps3-elf/lib/libc.a(lib_a-findfp.o)
                0x000000000001b548                ._cleanup
 .text.__sfp_lock_acquire
                0x000000000001b560       0x34 /usr/local/ps3dev/ppu/lib/gcc/powerpc64-ps3-elf/4.5.2/../../../../powerpc64-ps3-elf/lib/libc.a(lib_a-findfp.o)
                0x000000000001b560                .__sfp_lock_acquire
 *fill*         0x000000000001b594        0x4 60000000
 .text.__sfp_lock_release
                0x000000000001b598       0x34 /usr/local/ps3dev/ppu/lib/gcc/powerpc64-ps3-elf/4.5.2/../../../../powerpc64-ps3-elf/lib/libc.a(lib_a-findfp.o)
                0x000000000001b598                .__sfp_lock_release
 *fill*         0x000000000001b5cc        0x4 60000000
 .text.__sinit_lock_acquire
                0x000000000001b5d0       0x34 /usr/local/ps3dev/ppu/lib/gcc/powerpc64-ps3-elf/4.5.2/../../../../powerpc64-ps3-elf/lib/libc.a(lib_a-findfp.o)
                0x000000000001b5d0                .__sinit_lock_acquire
 *fill*         0x000000000001b604        0x4 60000000
 .text.__sinit_lock_release
                0x000000000001b608       0x34 /usr/local/ps3dev/ppu/lib/gcc/powerpc64-ps3-elf/4.5.2/../../../../powerpc64-ps3-elf/lib/libc.a(lib_a-findfp.o)
                0x000000000001b608                .__sinit_lock_release
 *fill*         0x000000000001b63c        0x4 60000000
 .text.__sinit  0x000000000001b640      0x1d8 /usr/local/ps3dev/ppu/lib/gcc/powerpc64-ps3-elf/4.5.2/../../../../powerpc64-ps3-elf/lib/libc.a(lib_a-findfp.o)
                0x000000000001b640                .__sinit
 .text.__sfp    0x000000000001b818      0x190 /usr/local/ps3dev/ppu/lib/gcc/powerpc64-ps3-elf/4.5.2/../../../../powerpc64-ps3-elf/lib/libc.a(lib_a-findfp.o)
                0x000000000001b818                .__sfp
 .text.__fp_lock_all
                0x000000000001b9a8       0x40 /usr/local/ps3dev/ppu/lib/gcc/powerpc64-ps3-elf/4.5.2/../../../../powerpc64-ps3-elf/lib/libc.a(lib_a-findfp.o)
                0x000000000001b9a8                .__fp_lock_all
 .text.__fp_unlock_all
                0x000000000001b9e8       0x3c /usr/local/ps3dev/ppu/lib/gcc/powerpc64-ps3-elf/4.5.2/../../../../powerpc64-ps3-elf/lib/libc.a(lib_a-findfp.o)
                0x000000000001b9e8                .__fp_unlock_all
 .text          0x000000000001ba24        0x0 /usr/local/ps3dev/ppu/lib/gcc/powerpc64-ps3-elf/4.5.2/../../../../powerpc64-ps3-elf/lib/libc.a(lib_a-freer.o)
 *fill*         0x000000000001ba24        0x4 60000000
 .text._malloc_trim_r
                0x000000000001ba28      0x15c /usr/local/ps3dev/ppu/lib/gcc/powerpc64-ps3-elf/4.5.2/../../../../powerpc64-ps3-elf/lib/libc.a(lib_a-freer.o)
                0x000000000001ba28                ._malloc_trim_r
 *fill*         0x000000000001bb84        0x4 60000000
 .text._free_r  0x000000000001bb88      0x310 /usr/local/ps3dev/ppu/lib/gcc/powerpc64-ps3-elf/4.5.2/../../../../powerpc64-ps3-elf/lib/libc.a(lib_a-freer.o)
                0x000000000001bb88                ._free_r
 .text          0x000000000001be98        0x0 /usr/local/ps3dev/ppu/lib/gcc/powerpc64-ps3-elf/4.5.2/../../../../powerpc64-ps3-elf/lib/libc.a(lib_a-fvwrite.o)
 .text.__sfvwrite_r
                0x000000000001be98      0x684 /usr/local/ps3dev/ppu/lib/gcc/powerpc64-ps3-elf/4.5.2/../../../../powerpc64-ps3-elf/lib/libc.a(lib_a-fvwrite.o)
                0x000000000001be98                .__sfvwrite_r
 .text          0x000000000001c51c        0x0 /usr/local/ps3dev/ppu/lib/gcc/powerpc64-ps3-elf/4.5.2/../../../../powerpc64-ps3-elf/lib/libc.a(lib_a-fwalk.o)
 *fill*         0x000000000001c51c        0x4 60000000
 .text._fwalk   0x000000000001c520       0xfc /usr/local/ps3dev/ppu/lib/gcc/powerpc64-ps3-elf/4.5.2/../../../../powerpc64-ps3-elf/lib/libc.a(lib_a-fwalk.o)
                0x000000000001c520                ._fwalk
 *fill*         0x000000000001c61c        0x4 60000000
 .text._fwalk_reent
                0x000000000001c620      0x108 /usr/local/ps3dev/ppu/lib/gcc/powerpc64-ps3-elf/4.5.2/../../../../powerpc64-ps3-elf/lib/libc.a(lib_a-fwalk.o)
                0x000000000001c620                ._fwalk_reent
 .text          0x000000000001c728        0x0 /usr/local/ps3dev/ppu/lib/gcc/powerpc64-ps3-elf/4.5.2/../../../../powerpc64-ps3-elf/lib/libc.a(lib_a-iswspace.o)
 .text.iswspace
                0x000000000001c728       0x3c /usr/local/ps3dev/ppu/lib/gcc/powerpc64-ps3-elf/4.5.2/../../../../powerpc64-ps3-elf/lib/libc.a(lib_a-iswspace.o)
                0x000000000001c728                .iswspace
 .text          0x000000000001c764        0x0 /usr/local/ps3dev/ppu/lib/gcc/powerpc64-ps3-elf/4.5.2/../../../../powerpc64-ps3-elf/lib/libc.a(lib_a-locale.o)
 *fill*         0x000000000001c764        0x4 60000000
 .text._setlocale_r
                0x000000000001c768       0xa8 /usr/local/ps3dev/ppu/lib/gcc/powerpc64-ps3-elf/4.5.2/../../../../powerpc64-ps3-elf/lib/libc.a(lib_a-locale.o)
                0x000000000001c768                ._setlocale_r
 .text.__locale_charset
                0x000000000001c810       0x14 /usr/local/ps3dev/ppu/lib/gcc/powerpc64-ps3-elf/4.5.2/../../../../powerpc64-ps3-elf/lib/libc.a(lib_a-locale.o)
                0x000000000001c810                .__locale_charset
 *fill*         0x000000000001c824        0x4 60000000
 .text.__locale_mb_cur_max
                0x000000000001c828       0x1c /usr/local/ps3dev/ppu/lib/gcc/powerpc64-ps3-elf/4.5.2/../../../../powerpc64-ps3-elf/lib/libc.a(lib_a-locale.o)
                0x000000000001c828                .__locale_mb_cur_max
 *fill*         0x000000000001c844        0x4 60000000
 .text.__locale_msgcharset
                0x000000000001c848       0x14 /usr/local/ps3dev/ppu/lib/gcc/powerpc64-ps3-elf/4.5.2/../../../../powerpc64-ps3-elf/lib/libc.a(lib_a-locale.o)
                0x000000000001c848                .__locale_msgcharset
 *fill*         0x000000000001c85c        0x4 60000000
 .text.__locale_cjk_lang
                0x000000000001c860       0x14 /usr/local/ps3dev/ppu/lib/gcc/powerpc64-ps3-elf/4.5.2/../../../../powerpc64-ps3-elf/lib/libc.a(lib_a-locale.o)
                0x000000000001c860                .__locale_cjk_lang
 *fill*         0x000000000001c874        0x4 60000000
 .text._localeconv_r
                0x000000000001c878       0x14 /usr/local/ps3dev/ppu/lib/gcc/powerpc64-ps3-elf/4.5.2/../../../../powerpc64-ps3-elf/lib/libc.a(lib_a-locale.o)
                0x000000000001c878                ._localeconv_r
 *fill*         0x000000000001c88c        0x4 60000000
 .text.setlocale
                0x000000000001c890       0x50 /usr/local/ps3dev/ppu/lib/gcc/powerpc64-ps3-elf/4.5.2/../../../../powerpc64-ps3-elf/lib/libc.a(lib_a-locale.o)
                0x000000000001c890                .setlocale
 .text.localeconv
                0x000000000001c8e0       0x34 /usr/local/ps3dev/ppu/lib/gcc/powerpc64-ps3-elf/4.5.2/../../../../powerpc64-ps3-elf/lib/libc.a(lib_a-locale.o)
                0x000000000001c8e0                .localeconv
 .text          0x000000000001c914        0x0 /usr/local/ps3dev/ppu/lib/gcc/powerpc64-ps3-elf/4.5.2/../../../../powerpc64-ps3-elf/lib/libc.a(lib_a-lock_recursive.o)
 *fill*         0x000000000001c914        0x4 60000000
 .text.__libc_lock_init_recursive
                0x000000000001c918       0x34 /usr/local/ps3dev/ppu/lib/gcc/powerpc64-ps3-elf/4.5.2/../../../../powerpc64-ps3-elf/lib/libc.a(lib_a-lock_recursive.o)
                0x000000000001c918                .__libc_lock_init_recursive
 *fill*         0x000000000001c94c        0x4 60000000
 .text.__libc_lock_close_recursive
                0x000000000001c950       0x30 /usr/local/ps3dev/ppu/lib/gcc/powerpc64-ps3-elf/4.5.2/../../../../powerpc64-ps3-elf/lib/libc.a(lib_a-lock_recursive.o)
                0x000000000001c950                .__libc_lock_close_recursive
 .text.__libc_lock_acquire_recursive
                0x000000000001c980       0x58 /usr/local/ps3dev/ppu/lib/gcc/powerpc64-ps3-elf/4.5.2/../../../../powerpc64-ps3-elf/lib/libc.a(lib_a-lock_recursive.o)
                0x000000000001c980                .__libc_lock_acquire_recursive
 .text.__libc_lock_try_acquire_recursive
                0x000000000001c9d8       0x54 /usr/local/ps3dev/ppu/lib/gcc/powerpc64-ps3-elf/4.5.2/../../../../powerpc64-ps3-elf/lib/libc.a(lib_a-lock_recursive.o)
                0x000000000001c9d8                .__libc_lock_try_acquire_recursive
 *fill*         0x000000000001ca2c        0x4 60000000
 .text.__libc_lock_release_recursive
                0x000000000001ca30       0x54 /usr/local/ps3dev/ppu/lib/gcc/powerpc64-ps3-elf/4.5.2/../../../../powerpc64-ps3-elf/lib/libc.a(lib_a-lock_recursive.o)
                0x000000000001ca30                .__libc_lock_release_recursive
 .text          0x000000000001ca84        0x0 /usr/local/ps3dev/ppu/lib/gcc/powerpc64-ps3-elf/4.5.2/../../../../powerpc64-ps3-elf/lib/libc.a(lib_a-mbrtowc.o)
 *fill*         0x000000000001ca84        0x4 60000000
 .text._mbrtowc_r
                0x000000000001ca88      0x10c /usr/local/ps3dev/ppu/lib/gcc/powerpc64-ps3-elf/4.5.2/../../../../powerpc64-ps3-elf/lib/libc.a(lib_a-mbrtowc.o)
                0x000000000001ca88                ._mbrtowc_r
 *fill*         0x000000000001cb94        0x4 60000000
 .text.mbrtowc  0x000000000001cb98      0x170 /usr/local/ps3dev/ppu/lib/gcc/powerpc64-ps3-elf/4.5.2/../../../../powerpc64-ps3-elf/lib/libc.a(lib_a-mbrtowc.o)
                0x000000000001cb98                .mbrtowc
 .text          0x000000000001cd08        0x0 /usr/local/ps3dev/ppu/lib/gcc/powerpc64-ps3-elf/4.5.2/../../../../powerpc64-ps3-elf/lib/libc.a(lib_a-mbtowc_r.o)
 .text.__ascii_mbtowc
                0x000000000001cd08       0x58 /usr/local/ps3dev/ppu/lib/gcc/powerpc64-ps3-elf/4.5.2/../../../../powerpc64-ps3-elf/lib/libc.a(lib_a-mbtowc_r.o)
                0x000000000001cd08                .__ascii_mbtowc
 .text._mbtowc_r
                0x000000000001cd60       0x98 /usr/local/ps3dev/ppu/lib/gcc/powerpc64-ps3-elf/4.5.2/../../../../powerpc64-ps3-elf/lib/libc.a(lib_a-mbtowc_r.o)
                0x000000000001cd60                ._mbtowc_r
 .text          0x000000000001cdf8        0x0 /usr/local/ps3dev/ppu/lib/gcc/powerpc64-ps3-elf/4.5.2/../../../../powerpc64-ps3-elf/lib/libc.a(lib_a-memchr.o)
 .text.memchr   0x000000000001cdf8      0x13c /usr/local/ps3dev/ppu/lib/gcc/powerpc64-ps3-elf/4.5.2/../../../../powerpc64-ps3-elf/lib/libc.a(lib_a-memchr.o)
                0x000000000001cdf8                .memchr
 .text          0x000000000001cf34        0x0 /usr/local/ps3dev/ppu/lib/gcc/powerpc64-ps3-elf/4.5.2/../../../../powerpc64-ps3-elf/lib/libc.a(lib_a-memcpy.o)
 *fill*         0x000000000001cf34        0x4 60000000
 .text.memcpy   0x000000000001cf38       0xf8 /usr/local/ps3dev/ppu/lib/gcc/powerpc64-ps3-elf/4.5.2/../../../../powerpc64-ps3-elf/lib/libc.a(lib_a-memcpy.o)
                0x000000000001cf38                .memcpy
 .text          0x000000000001d030        0x0 /usr/local/ps3dev/ppu/lib/gcc/powerpc64-ps3-elf/4.5.2/../../../../powerpc64-ps3-elf/lib/libc.a(lib_a-memmove.o)
 .text.memmove  0x000000000001d030      0x130 /usr/local/ps3dev/ppu/lib/gcc/powerpc64-ps3-elf/4.5.2/../../../../powerpc64-ps3-elf/lib/libc.a(lib_a-memmove.o)
                0x000000000001d030                .memmove
 .text          0x000000000001d160        0x0 /usr/local/ps3dev/ppu/lib/gcc/powerpc64-ps3-elf/4.5.2/../../../../powerpc64-ps3-elf/lib/libc.a(lib_a-reallocr.o)
 .text._realloc_r
                0x000000000001d160      0x710 /usr/local/ps3dev/ppu/lib/gcc/powerpc64-ps3-elf/4.5.2/../../../../powerpc64-ps3-elf/lib/libc.a(lib_a-reallocr.o)
                0x000000000001d160                ._realloc_r
 .text          0x000000000001d870        0x0 /usr/local/ps3dev/ppu/lib/gcc/powerpc64-ps3-elf/4.5.2/../../../../powerpc64-ps3-elf/lib/libc.a(lib_a-sccl.o)
 .text.__sccl   0x000000000001d870      0x120 /usr/local/ps3dev/ppu/lib/gcc/powerpc64-ps3-elf/4.5.2/../../../../powerpc64-ps3-elf/lib/libc.a(lib_a-sccl.o)
                0x000000000001d870                .__sccl
 .text          0x000000000001d990        0x0 /usr/local/ps3dev/ppu/lib/gcc/powerpc64-ps3-elf/4.5.2/../../../../powerpc64-ps3-elf/lib/libc.a(lib_a-sf_nan.o)
 .text.nanf     0x000000000001d990       0x18 /usr/local/ps3dev/ppu/lib/gcc/powerpc64-ps3-elf/4.5.2/../../../../powerpc64-ps3-elf/lib/libc.a(lib_a-sf_nan.o)
                0x000000000001d990                .nanf
 .text          0x000000000001d9a8        0x0 /usr/local/ps3dev/ppu/lib/gcc/powerpc64-ps3-elf/4.5.2/../../../../powerpc64-ps3-elf/lib/libc.a(lib_a-s_fpclassify.o)
 .text.__fpclassifyd
                0x000000000001d9a8       0xc4 /usr/local/ps3dev/ppu/lib/gcc/powerpc64-ps3-elf/4.5.2/../../../../powerpc64-ps3-elf/lib/libc.a(lib_a-s_fpclassify.o)
                0x000000000001d9a8                .__fpclassifyd
 .text          0x000000000001da6c        0x0 /usr/local/ps3dev/ppu/lib/gcc/powerpc64-ps3-elf/4.5.2/../../../../powerpc64-ps3-elf/lib/libc.a(lib_a-sprintf.o)
 *fill*         0x000000000001da6c        0x4 60000000
 .text._sprintf_r
                0x000000000001da70       0x84 /usr/local/ps3dev/ppu/lib/gcc/powerpc64-ps3-elf/4.5.2/../../../../powerpc64-ps3-elf/lib/libc.a(lib_a-sprintf.o)
                0x000000000001da70                ._sprintf_r
 *fill*         0x000000000001daf4        0x4 60000000
 .text.sprintf  0x000000000001daf8       0x9c /usr/local/ps3dev/ppu/lib/gcc/powerpc64-ps3-elf/4.5.2/../../../../powerpc64-ps3-elf/lib/libc.a(lib_a-sprintf.o)
                0x000000000001daf8                .sprintf
 .text          0x000000000001db94        0x0 /usr/local/ps3dev/ppu/lib/gcc/powerpc64-ps3-elf/4.5.2/../../../../powerpc64-ps3-elf/lib/libc.a(lib_a-strcmp.o)
 *fill*         0x000000000001db94        0x4 60000000
 .text.strcmp   0x000000000001db98       0xfc /usr/local/ps3dev/ppu/lib/gcc/powerpc64-ps3-elf/4.5.2/../../../../powerpc64-ps3-elf/lib/libc.a(lib_a-strcmp.o)
                0x000000000001db98                .strcmp
 .text          0x000000000001dc94        0x0 /usr/local/ps3dev/ppu/lib/gcc/powerpc64-ps3-elf/4.5.2/../../../../powerpc64-ps3-elf/lib/libc.a(lib_a-strtod.o)
 *fill*         0x000000000001dc94        0x4 60000000
 .text.match    0x000000000001dc98       0x6c /usr/local/ps3dev/ppu/lib/gcc/powerpc64-ps3-elf/4.5.2/../../../../powerpc64-ps3-elf/lib/libc.a(lib_a-strtod.o)
 *fill*         0x000000000001dd04        0x4 60000000
 .text._strtod_r
                0x000000000001dd08     0x1578 /usr/local/ps3dev/ppu/lib/gcc/powerpc64-ps3-elf/4.5.2/../../../../powerpc64-ps3-elf/lib/libc.a(lib_a-strtod.o)
                0x000000000001dd08                ._strtod_r
 .text.strtod   0x000000000001f280       0x50 /usr/local/ps3dev/ppu/lib/gcc/powerpc64-ps3-elf/4.5.2/../../../../powerpc64-ps3-elf/lib/libc.a(lib_a-strtod.o)
                0x000000000001f280                .strtod
 .text.strtof   0x000000000001f2d0       0x98 /usr/local/ps3dev/ppu/lib/gcc/powerpc64-ps3-elf/4.5.2/../../../../powerpc64-ps3-elf/lib/libc.a(lib_a-strtod.o)
                0x000000000001f2d0                .strtof
 .text          0x000000000001f368        0x0 /usr/local/ps3dev/ppu/lib/gcc/powerpc64-ps3-elf/4.5.2/../../../../powerpc64-ps3-elf/lib/libc.a(lib_a-strtoll_r.o)
 .text._strtoll_r
                0x000000000001f368      0x24c /usr/local/ps3dev/ppu/lib/gcc/powerpc64-ps3-elf/4.5.2/../../../../powerpc64-ps3-elf/lib/libc.a(lib_a-strtoll_r.o)
                0x000000000001f368                ._strtoll_r
 .text          0x000000000001f5b4        0x0 /usr/local/ps3dev/ppu/lib/gcc/powerpc64-ps3-elf/4.5.2/../../../../powerpc64-ps3-elf/lib/libc.a(lib_a-strtol.o)
 *fill*         0x000000000001f5b4        0x4 60000000
 .text._strtol_r
                0x000000000001f5b8      0x24c /usr/local/ps3dev/ppu/lib/gcc/powerpc64-ps3-elf/4.5.2/../../../../powerpc64-ps3-elf/lib/libc.a(lib_a-strtol.o)
                0x000000000001f5b8                ._strtol_r
 *fill*         0x000000000001f804        0x4 60000000
 .text.strtol   0x000000000001f808       0x60 /usr/local/ps3dev/ppu/lib/gcc/powerpc64-ps3-elf/4.5.2/../../../../powerpc64-ps3-elf/lib/libc.a(lib_a-strtol.o)
                0x000000000001f808                .strtol
 .text          0x000000000001f868        0x0 /usr/local/ps3dev/ppu/lib/gcc/powerpc64-ps3-elf/4.5.2/../../../../powerpc64-ps3-elf/lib/libc.a(lib_a-strtoull_r.o)
 .text._strtoull_r
                0x000000000001f868      0x230 /usr/local/ps3dev/ppu/lib/gcc/powerpc64-ps3-elf/4.5.2/../../../../powerpc64-ps3-elf/lib/libc.a(lib_a-strtoull_r.o)
                0x000000000001f868                ._strtoull_r
 .text          0x000000000001fa98        0x0 /usr/local/ps3dev/ppu/lib/gcc/powerpc64-ps3-elf/4.5.2/../../../../powerpc64-ps3-elf/lib/libc.a(lib_a-strtoul.o)
 .text._strtoul_r
                0x000000000001fa98      0x230 /usr/local/ps3dev/ppu/lib/gcc/powerpc64-ps3-elf/4.5.2/../../../../powerpc64-ps3-elf/lib/libc.a(lib_a-strtoul.o)
                0x000000000001fa98                ._strtoul_r
 .text.strtoul  0x000000000001fcc8       0x60 /usr/local/ps3dev/ppu/lib/gcc/powerpc64-ps3-elf/4.5.2/../../../../powerpc64-ps3-elf/lib/libc.a(lib_a-strtoul.o)
                0x000000000001fcc8                .strtoul
 .text          0x000000000001fd28        0x0 /usr/local/ps3dev/ppu/lib/gcc/powerpc64-ps3-elf/4.5.2/../../../../powerpc64-ps3-elf/lib/libc.a(lib_a-svfiscanf.o)
 .text._sungetc_r
                0x000000000001fd28      0x158 /usr/local/ps3dev/ppu/lib/gcc/powerpc64-ps3-elf/4.5.2/../../../../powerpc64-ps3-elf/lib/libc.a(lib_a-svfiscanf.o)
                0x000000000001fd28                ._sungetc_r
 .text.__ssrefill_r
                0x000000000001fe80       0xa0 /usr/local/ps3dev/ppu/lib/gcc/powerpc64-ps3-elf/4.5.2/../../../../powerpc64-ps3-elf/lib/libc.a(lib_a-svfiscanf.o)
                0x000000000001fe80                .__ssrefill_r
 .text._sfread_r
                0x000000000001ff20      0x194 /usr/local/ps3dev/ppu/lib/gcc/powerpc64-ps3-elf/4.5.2/../../../../powerpc64-ps3-elf/lib/libc.a(lib_a-svfiscanf.o)
                0x000000000001ff20                ._sfread_r
 *fill*         0x00000000000200b4        0x4 60000000
 .text.__ssvfiscanf_r
                0x00000000000200b8     0x1208 /usr/local/ps3dev/ppu/lib/gcc/powerpc64-ps3-elf/4.5.2/../../../../powerpc64-ps3-elf/lib/libc.a(lib_a-svfiscanf.o)
                0x00000000000200b8                .__ssvfiscanf_r
 .text          0x00000000000212c0        0x0 /usr/local/ps3dev/ppu/lib/gcc/powerpc64-ps3-elf/4.5.2/../../../../powerpc64-ps3-elf/lib/libc.a(lib_a-svfprintf.o)
 .text._svfprintf_r
                0x00000000000212c0     0x2120 /usr/local/ps3dev/ppu/lib/gcc/powerpc64-ps3-elf/4.5.2/../../../../powerpc64-ps3-elf/lib/libc.a(lib_a-svfprintf.o)
                0x00000000000212c0                ._svfprintf_r
 .text          0x00000000000233e0        0x0 /usr/local/ps3dev/ppu/lib/gcc/powerpc64-ps3-elf/4.5.2/../../../../powerpc64-ps3-elf/lib/libc.a(lib_a-ungetc.o)
 .text.__submore
                0x00000000000233e0      0x124 /usr/local/ps3dev/ppu/lib/gcc/powerpc64-ps3-elf/4.5.2/../../../../powerpc64-ps3-elf/lib/libc.a(lib_a-ungetc.o)
                0x00000000000233e0                .__submore
 *fill*         0x0000000000023504        0x4 60000000
 .text._ungetc_r
                0x0000000000023508      0x2b8 /usr/local/ps3dev/ppu/lib/gcc/powerpc64-ps3-elf/4.5.2/../../../../powerpc64-ps3-elf/lib/libc.a(lib_a-ungetc.o)
                0x0000000000023508                ._ungetc_r
 .text.ungetc   0x00000000000237c0       0x50 /usr/local/ps3dev/ppu/lib/gcc/powerpc64-ps3-elf/4.5.2/../../../../powerpc64-ps3-elf/lib/libc.a(lib_a-ungetc.o)
                0x00000000000237c0                .ungetc
 .text          0x0000000000023810        0x0 /usr/local/ps3dev/ppu/lib/gcc/powerpc64-ps3-elf/4.5.2/../../../../powerpc64-ps3-elf/lib/libc.a(lib_a-wsetup.o)
 .text.__swsetup_r
                0x0000000000023810      0x1d4 /usr/local/ps3dev/ppu/lib/gcc/powerpc64-ps3-elf/4.5.2/../../../../powerpc64-ps3-elf/lib/libc.a(lib_a-wsetup.o)
                0x0000000000023810                .__swsetup_r
 .text          0x00000000000239e4        0x0 /usr/local/ps3dev/ppu/lib/gcc/powerpc64-ps3-elf/4.5.2/../../../../powerpc64-ps3-elf/lib/libc.a(lib_a-dtoa.o)
 *fill*         0x00000000000239e4        0x4 60000000
 .text.quorem   0x00000000000239e8      0x258 /usr/local/ps3dev/ppu/lib/gcc/powerpc64-ps3-elf/4.5.2/../../../../powerpc64-ps3-elf/lib/libc.a(lib_a-dtoa.o)
 .text._dtoa_r  0x0000000000023c40     0x1328 /usr/local/ps3dev/ppu/lib/gcc/powerpc64-ps3-elf/4.5.2/../../../../powerpc64-ps3-elf/lib/libc.a(lib_a-dtoa.o)
                0x0000000000023c40                ._dtoa_r
 .text          0x0000000000024f68        0x0 /usr/local/ps3dev/ppu/lib/gcc/powerpc64-ps3-elf/4.5.2/../../../../powerpc64-ps3-elf/lib/libc.a(lib_a-fclose.o)
 .text._fclose_r
                0x0000000000024f68      0x1ec /usr/local/ps3dev/ppu/lib/gcc/powerpc64-ps3-elf/4.5.2/../../../../powerpc64-ps3-elf/lib/libc.a(lib_a-fclose.o)
                0x0000000000024f68                ._fclose_r
 *fill*         0x0000000000025154        0x4 60000000
 .text.fclose   0x0000000000025158       0x40 /usr/local/ps3dev/ppu/lib/gcc/powerpc64-ps3-elf/4.5.2/../../../../powerpc64-ps3-elf/lib/libc.a(lib_a-fclose.o)
                0x0000000000025158                .fclose
 .text          0x0000000000025198        0x0 /usr/local/ps3dev/ppu/lib/gcc/powerpc64-ps3-elf/4.5.2/../../../../powerpc64-ps3-elf/lib/libc.a(lib_a-fflush.o)
 .text._fflush_r
                0x0000000000025198      0x410 /usr/local/ps3dev/ppu/lib/gcc/powerpc64-ps3-elf/4.5.2/../../../../powerpc64-ps3-elf/lib/libc.a(lib_a-fflush.o)
                0x0000000000025198                ._fflush_r
 .text.fflush   0x00000000000255a8       0x74 /usr/local/ps3dev/ppu/lib/gcc/powerpc64-ps3-elf/4.5.2/../../../../powerpc64-ps3-elf/lib/libc.a(lib_a-fflush.o)
                0x00000000000255a8                .fflush
 .text          0x000000000002561c        0x0 /usr/local/ps3dev/ppu/lib/gcc/powerpc64-ps3-elf/4.5.2/../../../../powerpc64-ps3-elf/lib/libc.a(lib_a-gdtoa-gethex.o)
 *fill*         0x000000000002561c        0x4 60000000
 .text.rshift   0x0000000000025620      0x164 /usr/local/ps3dev/ppu/lib/gcc/powerpc64-ps3-elf/4.5.2/../../../../powerpc64-ps3-elf/lib/libc.a(lib_a-gdtoa-gethex.o)
 *fill*         0x0000000000025784        0x4 60000000
 .text.__hexdig_init
                0x0000000000025788       0x8c /usr/local/ps3dev/ppu/lib/gcc/powerpc64-ps3-elf/4.5.2/../../../../powerpc64-ps3-elf/lib/libc.a(lib_a-gdtoa-gethex.o)
                0x0000000000025788                .__hexdig_init
 *fill*         0x0000000000025814        0x4 60000000
 .text.__gethex
                0x0000000000025818      0x934 /usr/local/ps3dev/ppu/lib/gcc/powerpc64-ps3-elf/4.5.2/../../../../powerpc64-ps3-elf/lib/libc.a(lib_a-gdtoa-gethex.o)
                0x0000000000025818                .__gethex
 .text          0x000000000002614c        0x0 /usr/local/ps3dev/ppu/lib/gcc/powerpc64-ps3-elf/4.5.2/../../../../powerpc64-ps3-elf/lib/libc.a(lib_a-gdtoa-hexnan.o)
 *fill*         0x000000000002614c        0x4 60000000
 .text.__hexnan
                0x0000000000026150      0x324 /usr/local/ps3dev/ppu/lib/gcc/powerpc64-ps3-elf/4.5.2/../../../../powerpc64-ps3-elf/lib/libc.a(lib_a-gdtoa-hexnan.o)
                0x0000000000026150                .__hexnan
 .text          0x0000000000026474        0x0 /usr/local/ps3dev/ppu/lib/gcc/powerpc64-ps3-elf/4.5.2/../../../../powerpc64-ps3-elf/lib/libc.a(lib_a-lock_internal.o)
 *fill*         0x0000000000026474        0x4 60000000
 .text.init_metalock
                0x0000000000026478       0x48 /usr/local/ps3dev/ppu/lib/gcc/powerpc64-ps3-elf/4.5.2/../../../../powerpc64-ps3-elf/lib/libc.a(lib_a-lock_internal.o)
 .text.__libc_auto_lock_allocate
                0x00000000000264c0       0x9c /usr/local/ps3dev/ppu/lib/gcc/powerpc64-ps3-elf/4.5.2/../../../../powerpc64-ps3-elf/lib/libc.a(lib_a-lock_internal.o)
                0x00000000000264c0                .__libc_auto_lock_allocate
 .text          0x000000000002655c        0x0 /usr/local/ps3dev/ppu/lib/gcc/powerpc64-ps3-elf/4.5.2/../../../../powerpc64-ps3-elf/lib/libc.a(lib_a-makebuf.o)
 *fill*         0x000000000002655c        0x4 60000000
 .text.__smakebuf_r
                0x0000000000026560      0x228 /usr/local/ps3dev/ppu/lib/gcc/powerpc64-ps3-elf/4.5.2/../../../../powerpc64-ps3-elf/lib/libc.a(lib_a-makebuf.o)
                0x0000000000026560                .__smakebuf_r
 .text          0x0000000000026788        0x0 /usr/local/ps3dev/ppu/lib/gcc/powerpc64-ps3-elf/4.5.2/../../../../powerpc64-ps3-elf/lib/libc.a(lib_a-mprec.o)
 .text._Balloc  0x0000000000026788       0xd4 /usr/local/ps3dev/ppu/lib/gcc/powerpc64-ps3-elf/4.5.2/../../../../powerpc64-ps3-elf/lib/libc.a(lib_a-mprec.o)
                0x0000000000026788                ._Balloc
 *fill*         0x000000000002685c        0x4 60000000
 .text._Bfree   0x0000000000026860       0x34 /usr/local/ps3dev/ppu/lib/gcc/powerpc64-ps3-elf/4.5.2/../../../../powerpc64-ps3-elf/lib/libc.a(lib_a-mprec.o)
                0x0000000000026860                ._Bfree
 *fill*         0x0000000000026894        0x4 60000000
 .text.__multadd
                0x0000000000026898      0x164 /usr/local/ps3dev/ppu/lib/gcc/powerpc64-ps3-elf/4.5.2/../../../../powerpc64-ps3-elf/lib/libc.a(lib_a-mprec.o)
                0x0000000000026898                .__multadd
 *fill*         0x00000000000269fc        0x4 60000000
 .text.__s2b    0x0000000000026a00      0x164 /usr/local/ps3dev/ppu/lib/gcc/powerpc64-ps3-elf/4.5.2/../../../../powerpc64-ps3-elf/lib/libc.a(lib_a-mprec.o)
                0x0000000000026a00                .__s2b
 *fill*         0x0000000000026b64        0x4 60000000
 .text.__hi0bits
                0x0000000000026b68       0x94 /usr/local/ps3dev/ppu/lib/gcc/powerpc64-ps3-elf/4.5.2/../../../../powerpc64-ps3-elf/lib/libc.a(lib_a-mprec.o)
                0x0000000000026b68                .__hi0bits
 *fill*         0x0000000000026bfc        0x4 60000000
 .text.__lo0bits
                0x0000000000026c00       0xec /usr/local/ps3dev/ppu/lib/gcc/powerpc64-ps3-elf/4.5.2/../../../../powerpc64-ps3-elf/lib/libc.a(lib_a-mprec.o)
                0x0000000000026c00                .__lo0bits
 *fill*         0x0000000000026cec        0x4 60000000
 .text.__i2b    0x0000000000026cf0       0x48 /usr/local/ps3dev/ppu/lib/gcc/powerpc64-ps3-elf/4.5.2/../../../../powerpc64-ps3-elf/lib/libc.a(lib_a-mprec.o)
                0x0000000000026cf0                .__i2b
 .text.__multiply
                0x0000000000026d38      0x2a0 /usr/local/ps3dev/ppu/lib/gcc/powerpc64-ps3-elf/4.5.2/../../../../powerpc64-ps3-elf/lib/libc.a(lib_a-mprec.o)
                0x0000000000026d38                .__multiply
 .text.__pow5mult
                0x0000000000026fd8      0x15c /usr/local/ps3dev/ppu/lib/gcc/powerpc64-ps3-elf/4.5.2/../../../../powerpc64-ps3-elf/lib/libc.a(lib_a-mprec.o)
                0x0000000000026fd8                .__pow5mult
 *fill*         0x0000000000027134        0x4 60000000
 .text.__lshift
                0x0000000000027138      0x1c8 /usr/local/ps3dev/ppu/lib/gcc/powerpc64-ps3-elf/4.5.2/../../../../powerpc64-ps3-elf/lib/libc.a(lib_a-mprec.o)
                0x0000000000027138                .__lshift
 .text.__mcmp   0x0000000000027300       0x84 /usr/local/ps3dev/ppu/lib/gcc/powerpc64-ps3-elf/4.5.2/../../../../powerpc64-ps3-elf/lib/libc.a(lib_a-mprec.o)
                0x0000000000027300                .__mcmp
 *fill*         0x0000000000027384        0x4 60000000
 .text.__mdiff  0x0000000000027388      0x1fc /usr/local/ps3dev/ppu/lib/gcc/powerpc64-ps3-elf/4.5.2/../../../../powerpc64-ps3-elf/lib/libc.a(lib_a-mprec.o)
                0x0000000000027388                .__mdiff
 *fill*         0x0000000000027584        0x4 60000000
 .text.__ulp    0x0000000000027588       0xb8 /usr/local/ps3dev/ppu/lib/gcc/powerpc64-ps3-elf/4.5.2/../../../../powerpc64-ps3-elf/lib/libc.a(lib_a-mprec.o)
                0x0000000000027588                .__ulp
 .text.__b2d    0x0000000000027640      0x1c0 /usr/local/ps3dev/ppu/lib/gcc/powerpc64-ps3-elf/4.5.2/../../../../powerpc64-ps3-elf/lib/libc.a(lib_a-mprec.o)
                0x0000000000027640                .__b2d
 .text.__d2b    0x0000000000027800      0x1ac /usr/local/ps3dev/ppu/lib/gcc/powerpc64-ps3-elf/4.5.2/../../../../powerpc64-ps3-elf/lib/libc.a(lib_a-mprec.o)
                0x0000000000027800                .__d2b
 *fill*         0x00000000000279ac        0x4 60000000
 .text.__ratio  0x00000000000279b0       0xf8 /usr/local/ps3dev/ppu/lib/gcc/powerpc64-ps3-elf/4.5.2/../../../../powerpc64-ps3-elf/lib/libc.a(lib_a-mprec.o)
                0x00000000000279b0                .__ratio
 .text._mprec_log10
                0x0000000000027aa8       0x4c /usr/local/ps3dev/ppu/lib/gcc/powerpc64-ps3-elf/4.5.2/../../../../powerpc64-ps3-elf/lib/libc.a(lib_a-mprec.o)
                0x0000000000027aa8                ._mprec_log10
 *fill*         0x0000000000027af4        0x4 60000000
 .text.__copybits
                0x0000000000027af8       0x98 /usr/local/ps3dev/ppu/lib/gcc/powerpc64-ps3-elf/4.5.2/../../../../powerpc64-ps3-elf/lib/libc.a(lib_a-mprec.o)
                0x0000000000027af8                .__copybits
 .text.__any_on
                0x0000000000027b90       0xf4 /usr/local/ps3dev/ppu/lib/gcc/powerpc64-ps3-elf/4.5.2/../../../../powerpc64-ps3-elf/lib/libc.a(lib_a-mprec.o)
                0x0000000000027b90                .__any_on
 .text          0x0000000000027c84        0x0 /usr/local/ps3dev/ppu/lib/gcc/powerpc64-ps3-elf/4.5.2/../../../../powerpc64-ps3-elf/lib/libc.a(lib_a-strncmp.o)
 *fill*         0x0000000000027c84        0x4 60000000
 .text.strncmp  0x0000000000027c88      0x184 /usr/local/ps3dev/ppu/lib/gcc/powerpc64-ps3-elf/4.5.2/../../../../powerpc64-ps3-elf/lib/libc.a(lib_a-strncmp.o)
                0x0000000000027c88                .strncmp
 .text          0x0000000000027e0c        0x0 /usr/local/ps3dev/ppu/lib/gcc/powerpc64-ps3-elf/4.5.2/../../../../powerpc64-ps3-elf/lib/libc.a(lib_a-svfiprintf.o)
 *fill*         0x0000000000027e0c        0x4 60000000
 .text.__ssprint_r
                0x0000000000027e10      0x300 /usr/local/ps3dev/ppu/lib/gcc/powerpc64-ps3-elf/4.5.2/../../../../powerpc64-ps3-elf/lib/libc.a(lib_a-svfiprintf.o)
                0x0000000000027e10                .__ssprint_r
 .text._svfiprintf_r
                0x0000000000028110     0x1064 /usr/local/ps3dev/ppu/lib/gcc/powerpc64-ps3-elf/4.5.2/../../../../powerpc64-ps3-elf/lib/libc.a(lib_a-svfiprintf.o)
                0x0000000000028110                ._svfiprintf_r
 .text          0x0000000000029174        0x0 /usr/local/ps3dev/ppu/lib/gcc/powerpc64-ps3-elf/4.5.2/../../../../powerpc64-ps3-elf/lib/libc.a(lib_a-abort.o)
 *fill*         0x0000000000029174        0x4 60000000
 .text.abort    0x0000000000029178       0x30 /usr/local/ps3dev/ppu/lib/gcc/powerpc64-ps3-elf/4.5.2/../../../../powerpc64-ps3-elf/lib/libc.a(lib_a-abort.o)
                0x0000000000029178                .abort
 .text          0x00000000000291a8        0x0 /usr/local/ps3dev/ppu/lib/gcc/powerpc64-ps3-elf/4.5.2/../../../../powerpc64-ps3-elf/lib/libc.a(lib_a-callocr.o)
 .text._calloc_r
                0x00000000000291a8       0xe8 /usr/local/ps3dev/ppu/lib/gcc/powerpc64-ps3-elf/4.5.2/../../../../powerpc64-ps3-elf/lib/libc.a(lib_a-callocr.o)
                0x00000000000291a8                ._calloc_r
 .text          0x0000000000029290        0x0 /usr/local/ps3dev/ppu/lib/gcc/powerpc64-ps3-elf/4.5.2/../../../../powerpc64-ps3-elf/lib/libc.a(lib_a-signal.o)
 .text._init_signal_r
                0x0000000000029290       0x84 /usr/local/ps3dev/ppu/lib/gcc/powerpc64-ps3-elf/4.5.2/../../../../powerpc64-ps3-elf/lib/libc.a(lib_a-signal.o)
                0x0000000000029290                ._init_signal_r
 *fill*         0x0000000000029314        0x4 60000000
 .text._signal_r
                0x0000000000029318       0x9c /usr/local/ps3dev/ppu/lib/gcc/powerpc64-ps3-elf/4.5.2/../../../../powerpc64-ps3-elf/lib/libc.a(lib_a-signal.o)
                0x0000000000029318                ._signal_r
 *fill*         0x00000000000293b4        0x4 60000000
 .text._raise_r
                0x00000000000293b8      0x114 /usr/local/ps3dev/ppu/lib/gcc/powerpc64-ps3-elf/4.5.2/../../../../powerpc64-ps3-elf/lib/libc.a(lib_a-signal.o)
                0x00000000000293b8                ._raise_r
 *fill*         0x00000000000294cc        0x4 60000000
 .text.__sigtramp_r
                0x00000000000294d0       0xd0 /usr/local/ps3dev/ppu/lib/gcc/powerpc64-ps3-elf/4.5.2/../../../../powerpc64-ps3-elf/lib/libc.a(lib_a-signal.o)
                0x00000000000294d0                .__sigtramp_r
 .text.raise    0x00000000000295a0       0x40 /usr/local/ps3dev/ppu/lib/gcc/powerpc64-ps3-elf/4.5.2/../../../../powerpc64-ps3-elf/lib/libc.a(lib_a-signal.o)
                0x00000000000295a0                .raise
 .text.signal   0x00000000000295e0       0x50 /usr/local/ps3dev/ppu/lib/gcc/powerpc64-ps3-elf/4.5.2/../../../../powerpc64-ps3-elf/lib/libc.a(lib_a-signal.o)
                0x00000000000295e0                .signal
 .text._init_signal
                0x0000000000029630       0x30 /usr/local/ps3dev/ppu/lib/gcc/powerpc64-ps3-elf/4.5.2/../../../../powerpc64-ps3-elf/lib/libc.a(lib_a-signal.o)
                0x0000000000029630                ._init_signal
 .text.__sigtramp
                0x0000000000029660       0x40 /usr/local/ps3dev/ppu/lib/gcc/powerpc64-ps3-elf/4.5.2/../../../../powerpc64-ps3-elf/lib/libc.a(lib_a-signal.o)
                0x0000000000029660                .__sigtramp
 .text          0x00000000000296a0        0x0 /usr/local/ps3dev/ppu/lib/gcc/powerpc64-ps3-elf/4.5.2/../../../../powerpc64-ps3-elf/lib/libsysbase.a(close.o)
 .text._close_r
                0x00000000000296a0       0x6c /usr/local/ps3dev/ppu/lib/gcc/powerpc64-ps3-elf/4.5.2/../../../../powerpc64-ps3-elf/lib/libsysbase.a(close.o)
                0x00000000000296a0                ._close_r
 .text          0x000000000002970c        0x0 /usr/local/ps3dev/ppu/lib/gcc/powerpc64-ps3-elf/4.5.2/../../../../powerpc64-ps3-elf/lib/libsysbase.a(sbrk.o)
 *fill*         0x000000000002970c        0x4 60000000
 .text._sbrk_r  0x0000000000029710       0x78 /usr/local/ps3dev/ppu/lib/gcc/powerpc64-ps3-elf/4.5.2/../../../../powerpc64-ps3-elf/lib/libsysbase.a(sbrk.o)
                0x0000000000029710                ._sbrk_r
 .text          0x0000000000029788        0x0 /usr/local/ps3dev/ppu/lib/gcc/powerpc64-ps3-elf/4.5.2/../../../../powerpc64-ps3-elf/lib/libsysbase.a(_exit.o)
 .text._exit    0x0000000000029788       0x48 /usr/local/ps3dev/ppu/lib/gcc/powerpc64-ps3-elf/4.5.2/../../../../powerpc64-ps3-elf/lib/libsysbase.a(_exit.o)
                0x0000000000029788                ._exit
 .text          0x00000000000297d0        0x0 /usr/local/ps3dev/ppu/lib/gcc/powerpc64-ps3-elf/4.5.2/../../../../powerpc64-ps3-elf/lib/libsysbase.a(fstat.o)
 .text._fstat_r
                0x00000000000297d0       0x6c /usr/local/ps3dev/ppu/lib/gcc/powerpc64-ps3-elf/4.5.2/../../../../powerpc64-ps3-elf/lib/libsysbase.a(fstat.o)
                0x00000000000297d0                ._fstat_r
 .text          0x000000000002983c        0x0 /usr/local/ps3dev/ppu/lib/gcc/powerpc64-ps3-elf/4.5.2/../../../../powerpc64-ps3-elf/lib/libsysbase.a(isatty.o)
 *fill*         0x000000000002983c        0x4 60000000
 .text._isatty_r
                0x0000000000029840       0x78 /usr/local/ps3dev/ppu/lib/gcc/powerpc64-ps3-elf/4.5.2/../../../../powerpc64-ps3-elf/lib/libsysbase.a(isatty.o)
                0x0000000000029840                ._isatty_r
 .text          0x00000000000298b8        0x0 /usr/local/ps3dev/ppu/lib/gcc/powerpc64-ps3-elf/4.5.2/../../../../powerpc64-ps3-elf/lib/libsysbase.a(lseek.o)
 .text._lseek_r
                0x00000000000298b8       0x6c /usr/local/ps3dev/ppu/lib/gcc/powerpc64-ps3-elf/4.5.2/../../../../powerpc64-ps3-elf/lib/libsysbase.a(lseek.o)
                0x00000000000298b8                ._lseek_r
 .text          0x0000000000029924        0x0 /usr/local/ps3dev/ppu/lib/gcc/powerpc64-ps3-elf/4.5.2/../../../../powerpc64-ps3-elf/lib/libsysbase.a(read.o)
 *fill*         0x0000000000029924        0x4 60000000
 .text._read_r  0x0000000000029928       0x6c /usr/local/ps3dev/ppu/lib/gcc/powerpc64-ps3-elf/4.5.2/../../../../powerpc64-ps3-elf/lib/libsysbase.a(read.o)
                0x0000000000029928                ._read_r
 .text          0x0000000000029994        0x0 /usr/local/ps3dev/ppu/lib/gcc/powerpc64-ps3-elf/4.5.2/../../../../powerpc64-ps3-elf/lib/libsysbase.a(write.o)
 *fill*         0x0000000000029994        0x4 60000000
 .text._write_r
                0x0000000000029998       0x6c /usr/local/ps3dev/ppu/lib/gcc/powerpc64-ps3-elf/4.5.2/../../../../powerpc64-ps3-elf/lib/libsysbase.a(write.o)
                0x0000000000029998                ._write_r
 .text          0x0000000000029a04        0x0 /usr/local/ps3dev/ppu/lib/gcc/powerpc64-ps3-elf/4.5.2/../../../../powerpc64-ps3-elf/lib/libsysbase.a(lock.o)
 *fill*         0x0000000000029a04        0x4 60000000
 .text.sys_lwmutex_create
                0x0000000000029a08       0x94 /usr/local/ps3dev/ppu/lib/gcc/powerpc64-ps3-elf/4.5.2/../../../../powerpc64-ps3-elf/lib/libsysbase.a(lock.o)
                0x0000000000029a08                .sys_lwmutex_create
 *fill*         0x0000000000029a9c        0x4 60000000
 .text.sys_lwmutex_destroy
                0x0000000000029aa0       0x84 /usr/local/ps3dev/ppu/lib/gcc/powerpc64-ps3-elf/4.5.2/../../../../powerpc64-ps3-elf/lib/libsysbase.a(lock.o)
                0x0000000000029aa0                .sys_lwmutex_destroy
 *fill*         0x0000000000029b24        0x4 60000000
 .text.sys_lwmutex_lock
                0x0000000000029b28       0x94 /usr/local/ps3dev/ppu/lib/gcc/powerpc64-ps3-elf/4.5.2/../../../../powerpc64-ps3-elf/lib/libsysbase.a(lock.o)
                0x0000000000029b28                .sys_lwmutex_lock
 *fill*         0x0000000000029bbc        0x4 60000000
 .text.sys_lwmutex_trylock
                0x0000000000029bc0       0x84 /usr/local/ps3dev/ppu/lib/gcc/powerpc64-ps3-elf/4.5.2/../../../../powerpc64-ps3-elf/lib/libsysbase.a(lock.o)
                0x0000000000029bc0                .sys_lwmutex_trylock
 *fill*         0x0000000000029c44        0x4 60000000
 .text.sys_lwmutex_unlock
                0x0000000000029c48       0x84 /usr/local/ps3dev/ppu/lib/gcc/powerpc64-ps3-elf/4.5.2/../../../../powerpc64-ps3-elf/lib/libsysbase.a(lock.o)
                0x0000000000029c48                .sys_lwmutex_unlock
 .text          0x0000000000029ccc        0x0 /usr/local/ps3dev/ppu/lib/gcc/powerpc64-ps3-elf/4.5.2/../../../../powerpc64-ps3-elf/lib/libsysbase.a(getpid.o)
 *fill*         0x0000000000029ccc        0x4 60000000
 .text._getpid_r
                0x0000000000029cd0       0x6c /usr/local/ps3dev/ppu/lib/gcc/powerpc64-ps3-elf/4.5.2/../../../../powerpc64-ps3-elf/lib/libsysbase.a(getpid.o)
                0x0000000000029cd0                ._getpid_r
 .text          0x0000000000029d3c        0x0 /usr/local/ps3dev/ppu/lib/gcc/powerpc64-ps3-elf/4.5.2/../../../../powerpc64-ps3-elf/lib/libsysbase.a(kill.o)
 *fill*         0x0000000000029d3c        0x4 60000000
 .text._kill_r  0x0000000000029d40       0x1c /usr/local/ps3dev/ppu/lib/gcc/powerpc64-ps3-elf/4.5.2/../../../../powerpc64-ps3-elf/lib/libsysbase.a(kill.o)
                0x0000000000029d40                ._kill_r
 .text          0x0000000000029d5c        0x0 /usr/local/ps3dev/ppu/lib/gcc/powerpc64-ps3-elf/4.5.2/crtend.o
 *fill*         0x0000000000029d5c        0x4 60000000
 .text.__do_global_ctors_aux
                0x0000000000029d60       0x64 /usr/local/ps3dev/ppu/lib/gcc/powerpc64-ps3-elf/4.5.2/crtend.o
 .text          0x0000000000029dc4        0x0 /usr/local/ps3dev/ppu/lib/gcc/powerpc64-ps3-elf/4.5.2/../../../../powerpc64-ps3-elf/lib/lv2-crtn.o
 *(.text.*personality*)
 *(.gnu.warning)
 *(.sfpr .glink)
 .sfpr          0x0000000000000000        0x0 linker stubs
 *fill*         0x0000000000029dc4        0x0 60000000
 .glink         0x0000000000000000        0x0 linker stubs

.fini           0x0000000000029dc4       0x24
 *(.fini)
 .fini          0x0000000000029dc4        0xc /usr/local/ps3dev/ppu/lib/gcc/powerpc64-ps3-elf/4.5.2/../../../../powerpc64-ps3-elf/lib/lv2-crti.o
                0x0000000000029dc4                ._fini
 .fini          0x0000000000029dd0        0x8 /usr/local/ps3dev/ppu/lib/gcc/powerpc64-ps3-elf/4.5.2/crtbegin.o
 .fini          0x0000000000029dd8       0x10 /usr/local/ps3dev/ppu/lib/gcc/powerpc64-ps3-elf/4.5.2/../../../../powerpc64-ps3-elf/lib/lv2-crtn.o

.sceStub.text   0x0000000000029de8     0x2f00
 *(.sceStub.text)
 .sceStub.text  0x0000000000029de8      0xec0 /usr/local/ps3dev/libpsl1ght/ppu/lib/libgcm_sys.a(sprx.o)
                0x0000000000029de8                .gcmInitBody
                0x0000000000029de8                __gcmInitBody
                0x0000000000029e28                .gcmSetDisplayBuffer
                0x0000000000029e28                __gcmSetDisplayBuffer
                0x0000000000029e68                .gcmGetControlRegister
                0x0000000000029e68                __gcmGetControlRegister
                0x0000000000029ea8                __gcmAddressToOffset
                0x0000000000029ea8                .gcmAddressToOffset
                0x0000000000029ee8                .gcmGetConfiguration
                0x0000000000029ee8                __gcmGetConfiguration
                0x0000000000029f28                __gcmGetCurrentField
                0x0000000000029f68                .gcmSetFlipMode
                0x0000000000029f68                __gcmSetFlipMode
                0x0000000000029fa8                .gcmGetFlipStatus
                0x0000000000029fa8                __gcmGetFlipStatus
                0x0000000000029fe8                __gcmGetLastFlipTime
                0x000000000002a028                __gcmGetVBlankCount
                0x000000000002a068                __gcmSetWaitFlip
                0x000000000002a068                .gcmSetWaitFlip
                0x000000000002a0a8                __gcmSetFlipStatus
                0x000000000002a0e8                __gcmResetFlipStatus
                0x000000000002a0e8                .gcmResetFlipStatus
                0x000000000002a128                __gcmSetFlip
                0x000000000002a128                .gcmSetFlip
                0x000000000002a168                __gcmSetFlipImmediate
                0x000000000002a1a8                __gcmFunc15
                0x000000000002a1e8                __gcmFunc3
                0x000000000002a228                __gcmFunc1
                0x000000000002a268                __gcmFunc2
                0x000000000002a2a8                __gcmFunc4
                0x000000000002a2e8                __gcmFunc12
                0x000000000002a328                __gcmFunc13
                0x000000000002a368                __gcmGetReport
                0x000000000002a3a8                __gcmSetTile
                0x000000000002a3e8                __gcmBindTile
                0x000000000002a428                __gcmUnbindTile
                0x000000000002a468                __gcmSetZcull
                0x000000000002a4a8                __gcmBindZcull
                0x000000000002a4e8                __gcmUnbindZcull
                0x000000000002a528                __gcmGetTimeStamp
                0x000000000002a568                __gcmSetVBlankFrequency
                0x000000000002a5a8                __gcmSetSecondVFrequency
                0x000000000002a5e8                __gcmSetDebugOutputLevel
                0x000000000002a628                __gcmGetLabelAddress
                0x000000000002a628                .gcmGetLabelAddress
                0x000000000002a668                __gcmSetVBlankHandlerEx
                0x000000000002a6a8                __gcmSetFlipHandlerEx
                0x000000000002a6e8                __gcmSetSecondVHandlerEx
                0x000000000002a728                __gcmSetGraphicsHandlerEx
                0x000000000002a768                __gcmTerminate
                0x000000000002a7a8                __gcmMapMainMemory
                0x000000000002a7e8                __gcmMapEaIoAddress
                0x000000000002a828                __gcmUnmapEaIoAddress
                0x000000000002a868                __gcmUnmapIoAddress
                0x000000000002a8a8                __gcmIoOffsetToAddress
                0x000000000002a8e8                __gcmSetDefaultCommandBuffer
                0x000000000002a928                __gcmSetTileInfo
                0x000000000002a968                __gcmGetTiledPitchSize
                0x000000000002a9a8                __gcmSetInvalidateTile
                0x000000000002a9e8                __gcmSetUserCommand
                0x000000000002aa28                __gcmSetUserHandlerEx
                0x000000000002aa68                __gcmSetQueueHandlerEx
                0x000000000002aaa8                __gcmSetPrepareFlip
                0x000000000002aae8                __gcmGetOffsetTable
                0x000000000002ab28                __gcmGetLastSecondVTime
                0x000000000002ab68                __gcmSortRemapEaIoAddress
                0x000000000002aba8                __gcmGetDisplayBufferByFlipIndex
                0x000000000002abe8                __gcmGcmGetDefaultCommandWordSize
                0x000000000002ac28                __gcmGcmGetDefaultSegmentWordSize
                0x000000000002ac68                __gcmSetDefaultCommandBufferAndSegmentWordSize
 .sceStub.text  0x000000000002aca8      0xbc0 /usr/local/ps3dev/libpsl1ght/ppu/lib/libio.a(sprx.o)
                0x000000000002aca8                __sys_config_start
                0x000000000002ace8                __sys_config_stop
                0x000000000002ad28                __sys_config_add_service_listener
                0x000000000002ad68                __sys_config_remove_service_listener
                0x000000000002ada8                __sys_config_register_service
                0x000000000002ade8                __sys_config_unregister_service
                0x000000000002ae28                __ioPadInit
                0x000000000002ae28                .ioPadInit
                0x000000000002ae68                __ioPadEnd
                0x000000000002aea8                __ioPadClearBuf
                0x000000000002aee8                __ioPadInfoPressMode
                0x000000000002af28                __ioPadLddRegisterController
                0x000000000002af68                __ioPadGetInfo
                0x000000000002afa8                __ioPadGetRawData
                0x000000000002afe8                __ioPadGetDataExtra
                0x000000000002b028                __ioPadInfoSensorMode
                0x000000000002b068                __ioPadGetData
                0x000000000002b0a8                __ioPadLddGetPortNo
                0x000000000002b0e8                __ioPadLddDataInsert
                0x000000000002b128                __ioPadSetSensorMode
                0x000000000002b168                __ioPadGetCapabilityInfo
                0x000000000002b1a8                __ioPadLddUnregisterController
                0x000000000002b1e8                __ioPadSetActDirect
                0x000000000002b228                __ioPadSetPressMode
                0x000000000002b268                __ioPadPeriphGetInfo
                0x000000000002b2a8                __ioPadSetPortSetting
                0x000000000002b2e8                __ioPadPeriphGetData
                0x000000000002b328                __ioPadGetInfo2
                0x000000000002b368                __ioMouseInit
                0x000000000002b3a8                __ioMouseEnd
                0x000000000002b3e8                __ioMouseClearBuf
                0x000000000002b428                __ioMouseGetInfo
                0x000000000002b468                __ioMouseGetTabletDataList
                0x000000000002b4a8                __ioMouseSetTabletMode
                0x000000000002b4e8                __ioMouseGetData
                0x000000000002b528                __ioMouseInfoTabletMode
                0x000000000002b568                __ioMouseGetRawData
                0x000000000002b5a8                __ioMouseGetDataList
                0x000000000002b5e8                __ioKbInit
                0x000000000002b628                __ioKbEnd
                0x000000000002b668                __ioKbRead
                0x000000000002b6a8                __ioKbSetReadMode
                0x000000000002b6e8                __ioKbSetCodeType
                0x000000000002b728                __ioKbCnvRawCode
                0x000000000002b768                __ioKbSetLEDStatus
                0x000000000002b7a8                __ioKbGetInfo
                0x000000000002b7e8                __ioKbGetConfiguration
                0x000000000002b828                __ioKbClearBuf
 .sceStub.text  0x000000000002b868      0xb80 /usr/local/ps3dev/libpsl1ght/ppu/lib/libsysutil.a(sprx.o)
                0x000000000002b868                .videoGetResolution
                0x000000000002b868                __videoGetResolution
                0x000000000002b8a8                .videoConfigure
                0x000000000002b8a8                __videoConfigure
                0x000000000002b8e8                .videoGetState
                0x000000000002b8e8                __videoGetState
                0x000000000002b928                __videoGetDeviceInfo
                0x000000000002b968                __videoGetConfiguration
                0x000000000002b9a8                __videoGetResolutionAvailability
                0x000000000002b9e8                __videoDebugSetMonitorType
                0x000000000002ba28                __videoRegisterCallbackEx
                0x000000000002ba68                __videoUnregisterCallback
                0x000000000002baa8                __videoGetNumberOfDevice
                0x000000000002bae8                __videoGetConvertCursorColorInfo
                0x000000000002bb28                __msgDialogClose
                0x000000000002bb28                .msgDialogClose
                0x000000000002bb68                .msgDialogOpenErrorCodeEx
                0x000000000002bb68                __msgDialogOpenErrorCodeEx
                0x000000000002bba8                .msgDialogOpenEx
                0x000000000002bba8                __msgDialogOpenEx
                0x000000000002bbe8                __msgDialogProgressBarInc
                0x000000000002bc28                .msgDialogAbort
                0x000000000002bc28                __msgDialogAbort
                0x000000000002bc68                .msgDialogOpen2Ex
                0x000000000002bc68                __msgDialogOpen2Ex
                0x000000000002bca8                __msgDialogProgressBarReset
                0x000000000002bce8                __msgDialogProgressBarSetMsg
                0x000000000002bd28                __oskGetInputText
                0x000000000002bd68                __oskSetInitialInputDevice
                0x000000000002bda8                __oskGetSize
                0x000000000002bde8                __oskUnloadAsync
                0x000000000002be28                __oskDisableDimmer
                0x000000000002be68                __oskSetKeyLayoutOption
                0x000000000002bea8                __oskAbort
                0x000000000002bee8                __oskSetDeviceMask
                0x000000000002bf28                __oskSetSeparateWindowOption
                0x000000000002bf68                __oskAddSupportLanguage
                0x000000000002bfa8                __oskLoadAsync
                0x000000000002bfe8                __oskSetInitialKeyLayout
                0x000000000002c028                __oskSetLayoutMode
                0x000000000002c068                __sysUtilRegisterCallbackEx
                0x000000000002c068                .sysUtilRegisterCallbackEx
                0x000000000002c0a8                __sysUtilCheckCallback
                0x000000000002c0a8                .sysUtilCheckCallback
                0x000000000002c0e8                __sysUtilUnregisterCallback
                0x000000000002c0e8                .sysUtilUnregisterCallback
                0x000000000002c128                .sysSaveListLoad2Ex
                0x000000000002c128                __sysSaveListLoad2Ex
                0x000000000002c168                __sysSaveListSave2Ex
                0x000000000002c168                .sysSaveListSave2Ex
                0x000000000002c1a8                __sysSaveListAutoLoadEx
                0x000000000002c1a8                .sysSaveListAutoLoadEx
                0x000000000002c1e8                __sysSaveListAutoSaveEx
                0x000000000002c1e8                .sysSaveListAutoSaveEx
                0x000000000002c228                .sysSaveFixedLoad2Ex
                0x000000000002c228                __sysSaveFixedLoad2Ex
                0x000000000002c268                .sysSaveFixedSave2Ex
                0x000000000002c268                __sysSaveFixedSave2Ex
                0x000000000002c2a8                .sysSaveAutoLoad2Ex
                0x000000000002c2a8                __sysSaveAutoLoad2Ex
                0x000000000002c2e8                __sysSaveAutoSave2Ex
                0x000000000002c2e8                .sysSaveAutoSave2Ex
                0x000000000002c328                __sysSaveDelete2
                0x000000000002c368                .sysDiscRegisterDiscChangeCallbackEx
                0x000000000002c368                __sysDiscRegisterDiscChangeCallbackEx
                0x000000000002c3a8                __sysDiscUnregisterDiscChangeCallback
 .sceStub.text  0x000000000002c3e8      0x900 /usr/local/ps3dev/libpsl1ght/ppu/lib/liblv2.a(sprx.o)
                0x000000000002c3e8                .sysProcessExit
                0x000000000002c3e8                __sysProcessExit
                0x000000000002c428                __sysProcessExitSpawn2
                0x000000000002c468                __sysProcessExitSpawnWithLevel
                0x000000000002c4a8                __sysThreadCreateEx
                0x000000000002c4e8                __sysThreadExit
                0x000000000002c528                __sysThreadGetId
                0x000000000002c568                __sysThreadOnce
                0x000000000002c5a8                __sysThreadInitialzeTLS
                0x000000000002c5e8                __sysSpuElfGetSegments
                0x000000000002c628                __sysSpuElfGetInformation
                0x000000000002c668                __sysSpuRawLoad
                0x000000000002c6a8                __sysSpuRawImageLoad
                0x000000000002c6e8                __sysSpuImageClose
                0x000000000002c728                __sysSpuImageImport
                0x000000000002c768                __sysLwMutexCreate
                0x000000000002c768                .sysLwMutexCreate
                0x000000000002c7a8                __sysLwMutexDestroy
                0x000000000002c7a8                .sysLwMutexDestroy
                0x000000000002c7e8                .sysLwMutexLock
                0x000000000002c7e8                __sysLwMutexLock
                0x000000000002c828                .sysLwMutexTryLock
                0x000000000002c828                __sysLwMutexTryLock
                0x000000000002c868                __sysLwMutexUnlock
                0x000000000002c868                .sysLwMutexUnlock
                0x000000000002c8a8                __sysLwCondCreate
                0x000000000002c8e8                __sysLwCondWait
                0x000000000002c928                __sysLwCondSignal
                0x000000000002c968                __sysLwCondSignalTo
                0x000000000002c9a8                __sysLwCondSignalAll
                0x000000000002c9e8                __sysLwCondDestroy
                0x000000000002ca28                __sysGetSystemTime
                0x000000000002ca68                __sysMMapperFreeMemory
                0x000000000002ca68                .sysMMapperFreeMemory
                0x000000000002caa8                __sysMMapperMapMemory
                0x000000000002cae8                __sysMMapperUnmapMemory
                0x000000000002cae8                .sysMMapperUnmapMemory
                0x000000000002cb28                __sysMMapperAllocateMemory
                0x000000000002cb28                .sysMMapperAllocateMemory
                0x000000000002cb68                __sysMMapperAllocateMemoryFromContainer
                0x000000000002cba8                .sysSpinlockInitialize
                0x000000000002cba8                __sysSpinlockInitialize
                0x000000000002cbe8                __sysSpinlockLock
                0x000000000002cbe8                .sysSpinlockLock
                0x000000000002cc28                __sysSpinlockTryLock
                0x000000000002cc68                .sysSpinlockUnlock
                0x000000000002cc68                __sysSpinlockUnlock
                0x000000000002cca8                __sysInterruptThreadDisestablish
 *(SORT(.sceStub.text.*))
                0x000000000002cce8                PROVIDE (__etext, .)
                0x000000000002cce8                PROVIDE (_etext, .)
                0x000000000002cce8                PROVIDE (etext, .)

.eh_frame_hdr   0x000000000002cce8        0x0
 *(.eh_frame_hdr)
 .eh_frame_hdr  0x0000000000000000        0x0 /usr/local/ps3dev/ppu/lib/gcc/powerpc64-ps3-elf/4.5.2/../../../../powerpc64-ps3-elf/lib/lv2-crtn.o

.eh_frame       0x000000000002cce8        0x4
 *(.eh_frame)
 .eh_frame      0x000000000002cce8        0x0 /usr/local/ps3dev/ppu/lib/gcc/powerpc64-ps3-elf/4.5.2/crtbegin.o
 .eh_frame      0x000000000002cce8        0x4 /usr/local/ps3dev/ppu/lib/gcc/powerpc64-ps3-elf/4.5.2/crtend.o

.gcc_except_table
 *(.gcc_except_table .gcc_except_table.*)

.rodata.sceResident
                0x000000000002ccec       0x3e
 *(.rodata.sceResident)
 .rodata.sceResident
                0x000000000002ccec        0xf /usr/local/ps3dev/libpsl1ght/ppu/lib/libgcm_sys.a(sprx.o)
 *fill*         0x000000000002ccfb        0x1 00
 .rodata.sceResident
                0x000000000002ccfc        0xb /usr/local/ps3dev/libpsl1ght/ppu/lib/libio.a(sprx.o)
 *fill*         0x000000000002cd07        0x1 00
 .rodata.sceResident
                0x000000000002cd08       0x10 /usr/local/ps3dev/libpsl1ght/ppu/lib/libsysutil.a(sprx.o)
 .rodata.sceResident
                0x000000000002cd18       0x12 /usr/local/ps3dev/libpsl1ght/ppu/lib/liblv2.a(sprx.o)

.rodata.sceFNID
                0x000000000002cd2c      0x2f0
 *(.rodata.sceFNID .rodata.sceFNID.*)
 .rodata.sceFNID
                0x000000000002cd2c       0xec /usr/local/ps3dev/libpsl1ght/ppu/lib/libgcm_sys.a(sprx.o)
                0x000000000002cd2c                gcmInitBody_fnid
                0x000000000002cd2c                cellGcmSys
                0x000000000002cd30                gcmSetDisplayBuffer_fnid
                0x000000000002cd34                gcmGetControlRegister_fnid
                0x000000000002cd38                gcmAddressToOffset_fnid
                0x000000000002cd3c                gcmGetConfiguration_fnid
                0x000000000002cd40                gcmGetCurrentField_fnid
                0x000000000002cd44                gcmSetFlipMode_fnid
                0x000000000002cd48                gcmGetFlipStatus_fnid
                0x000000000002cd4c                gcmGetLastFlipTime_fnid
                0x000000000002cd50                gcmGetVBlankCount_fnid
                0x000000000002cd54                gcmSetWaitFlip_fnid
                0x000000000002cd58                gcmSetFlipStatus_fnid
                0x000000000002cd5c                gcmResetFlipStatus_fnid
                0x000000000002cd60                gcmSetFlip_fnid
                0x000000000002cd64                gcmSetFlipImmediate_fnid
                0x000000000002cd68                gcmFunc15_fnid
                0x000000000002cd6c                gcmFunc3_fnid
                0x000000000002cd70                gcmFunc1_fnid
                0x000000000002cd74                gcmFunc2_fnid
                0x000000000002cd78                gcmFunc4_fnid
                0x000000000002cd7c                gcmFunc12_fnid
                0x000000000002cd80                gcmFunc13_fnid
                0x000000000002cd84                gcmGetReport_fnid
                0x000000000002cd88                gcmSetTile_fnid
                0x000000000002cd8c                gcmBindTile_fnid
                0x000000000002cd90                gcmUnbindTile_fnid
                0x000000000002cd94                gcmSetZcull_fnid
                0x000000000002cd98                gcmBindZcull_fnid
                0x000000000002cd9c                gcmUnbindZcull_fnid
                0x000000000002cda0                gcmGetTimeStamp_fnid
                0x000000000002cda4                gcmSetVBlankFrequency_fnid
                0x000000000002cda8                gcmSetSecondVFrequency_fnid
                0x000000000002cdac                gcmSetDebugOutputLevel_fnid
                0x000000000002cdb0                gcmGetLabelAddress_fnid
                0x000000000002cdb4                gcmSetVBlankHandlerEx_fnid
                0x000000000002cdb8                gcmSetFlipHandlerEx_fnid
                0x000000000002cdbc                gcmSetSecondVHandlerEx_fnid
                0x000000000002cdc0                gcmSetGraphicsHandlerEx_fnid
                0x000000000002cdc4                gcmTerminate_fnid
                0x000000000002cdc8                gcmMapMainMemory_fnid
                0x000000000002cdcc                gcmMapEaIoAddress_fnid
                0x000000000002cdd0                gcmUnmapEaIoAddress_fnid
                0x000000000002cdd4                gcmUnmapIoAddress_fnid
                0x000000000002cdd8                gcmIoOffsetToAddress_fnid
                0x000000000002cddc                gcmSetDefaultCommandBuffer_fnid
                0x000000000002cde0                gcmSetTileInfo_fnid
                0x000000000002cde4                gcmGetTiledPitchSize_fnid
                0x000000000002cde8                gcmSetInvalidateTile_fnid
                0x000000000002cdec                gcmSetUserCommand_fnid
                0x000000000002cdf0                gcmSetUserHandlerEx_fnid
                0x000000000002cdf4                gcmSetQueueHandlerEx_fnid
                0x000000000002cdf8                gcmSetPrepareFlip_fnid
                0x000000000002cdfc                gcmGetOffsetTable_fnid
                0x000000000002ce00                gcmGetLastSecondVTime_fnid
                0x000000000002ce04                gcmSortRemapEaIoAddress_fnid
                0x000000000002ce08                gcmGetDisplayBufferByFlipIndex_fnid
                0x000000000002ce0c                gcmGcmGetDefaultCommandWordSize_fnid
                0x000000000002ce10                gcmGcmGetDefaultSegmentWordSize_fnid
                0x000000000002ce14                gcmSetDefaultCommandBufferAndSegmentWordSize_fnid
 .rodata.sceFNID
                0x000000000002ce18       0xbc /usr/local/ps3dev/libpsl1ght/ppu/lib/libio.a(sprx.o)
                0x000000000002ce18                sys_io
                0x000000000002ce18                sys_config_start_fnid
                0x000000000002ce1c                sys_config_stop_fnid
                0x000000000002ce20                sys_config_add_service_listener_fnid
                0x000000000002ce24                sys_config_remove_service_listener_fnid
                0x000000000002ce28                sys_config_register_service_fnid
                0x000000000002ce2c                sys_config_unregister_service_fnid
                0x000000000002ce30                ioPadInit_fnid
                0x000000000002ce34                ioPadEnd_fnid
                0x000000000002ce38                ioPadClearBuf_fnid
                0x000000000002ce3c                ioPadInfoPressMode_fnid
                0x000000000002ce40                ioPadLddRegisterController_fnid
                0x000000000002ce44                ioPadGetInfo_fnid
                0x000000000002ce48                ioPadGetRawData_fnid
                0x000000000002ce4c                ioPadGetDataExtra_fnid
                0x000000000002ce50                ioPadInfoSensorMode_fnid
                0x000000000002ce54                ioPadGetData_fnid
                0x000000000002ce58                ioPadLddGetPortNo_fnid
                0x000000000002ce5c                ioPadLddDataInsert_fnid
                0x000000000002ce60                ioPadSetSensorMode_fnid
                0x000000000002ce64                ioPadGetCapabilityInfo_fnid
                0x000000000002ce68                ioPadLddUnregisterController_fnid
                0x000000000002ce6c                ioPadSetActDirect_fnid
                0x000000000002ce70                ioPadSetPressMode_fnid
                0x000000000002ce74                ioPadPeriphGetInfo_fnid
                0x000000000002ce78                ioPadSetPortSetting_fnid
                0x000000000002ce7c                ioPadPeriphGetData_fnid
                0x000000000002ce80                ioPadGetInfo2_fnid
                0x000000000002ce84                ioMouseInit_fnid
                0x000000000002ce88                ioMouseEnd_fnid
                0x000000000002ce8c                ioMouseClearBuf_fnid
                0x000000000002ce90                ioMouseGetInfo_fnid
                0x000000000002ce94                ioMouseGetTabletDataList_fnid
                0x000000000002ce98                ioMouseSetTabletMode_fnid
                0x000000000002ce9c                ioMouseGetData_fnid
                0x000000000002cea0                ioMouseInfoTabletMode_fnid
                0x000000000002cea4                ioMouseGetRawData_fnid
                0x000000000002cea8                ioMouseGetDataList_fnid
                0x000000000002ceac                ioKbInit_fnid
                0x000000000002ceb0                ioKbEnd_fnid
                0x000000000002ceb4                ioKbRead_fnid
                0x000000000002ceb8                ioKbSetReadMode_fnid
                0x000000000002cebc                ioKbSetCodeType_fnid
                0x000000000002cec0                ioKbCnvRawCode_fnid
                0x000000000002cec4                ioKbSetLEDStatus_fnid
                0x000000000002cec8                ioKbGetInfo_fnid
                0x000000000002cecc                ioKbGetConfiguration_fnid
                0x000000000002ced0                ioKbClearBuf_fnid
 .rodata.sceFNID
                0x000000000002ced4       0xb8 /usr/local/ps3dev/libpsl1ght/ppu/lib/libsysutil.a(sprx.o)
                0x000000000002ced4                videoGetResolution_fnid
                0x000000000002ced4                cellSysutil
                0x000000000002ced8                videoConfigure_fnid
                0x000000000002cedc                videoGetState_fnid
                0x000000000002cee0                videoGetDeviceInfo_fnid
                0x000000000002cee4                videoGetConfiguration_fnid
                0x000000000002cee8                videoGetResolutionAvailability_fnid
                0x000000000002ceec                videoDebugSetMonitorType_fnid
                0x000000000002cef0                videoRegisterCallbackEx_fnid
                0x000000000002cef4                videoUnregisterCallback_fnid
                0x000000000002cef8                videoGetNumberOfDevice_fnid
                0x000000000002cefc                videoGetConvertCursorColorInfo_fnid
                0x000000000002cf00                msgDialogClose_fnid
                0x000000000002cf04                msgDialogOpenErrorCodeEx_fnid
                0x000000000002cf08                msgDialogOpenEx_fnid
                0x000000000002cf0c                msgDialogProgressBarInc_fnid
                0x000000000002cf10                msgDialogAbort_fnid
                0x000000000002cf14                msgDialogOpen2Ex_fnid
                0x000000000002cf18                msgDialogProgressBarReset_fnid
                0x000000000002cf1c                msgDialogProgressBarSetMsg_fnid
                0x000000000002cf20                oskGetInputText_fnid
                0x000000000002cf24                oskSetInitialInputDevice_fnid
                0x000000000002cf28                oskGetSize_fnid
                0x000000000002cf2c                oskUnloadAsync_fnid
                0x000000000002cf30                oskDisableDimmer_fnid
                0x000000000002cf34                oskSetKeyLayoutOption_fnid
                0x000000000002cf38                oskAbort_fnid
                0x000000000002cf3c                oskSetDeviceMask_fnid
                0x000000000002cf40                oskSetSeparateWindowOption_fnid
                0x000000000002cf44                oskAddSupportLanguage_fnid
                0x000000000002cf48                oskLoadAsync_fnid
                0x000000000002cf4c                oskSetInitialKeyLayout_fnid
                0x000000000002cf50                oskSetLayoutMode_fnid
                0x000000000002cf54                sysUtilRegisterCallbackEx_fnid
                0x000000000002cf58                sysUtilCheckCallback_fnid
                0x000000000002cf5c                sysUtilUnregisterCallback_fnid
                0x000000000002cf60                sysSaveListLoad2Ex_fnid
                0x000000000002cf64                sysSaveListSave2Ex_fnid
                0x000000000002cf68                sysSaveListAutoLoadEx_fnid
                0x000000000002cf6c                sysSaveListAutoSaveEx_fnid
                0x000000000002cf70                sysSaveFixedLoad2Ex_fnid
                0x000000000002cf74                sysSaveFixedSave2Ex_fnid
                0x000000000002cf78                sysSaveAutoLoad2Ex_fnid
                0x000000000002cf7c                sysSaveAutoSave2Ex_fnid
                0x000000000002cf80                sysSaveDelete2_fnid
                0x000000000002cf84                sysDiscRegisterDiscChangeCallbackEx_fnid
                0x000000000002cf88                sysDiscUnregisterDiscChangeCallback_fnid
 .rodata.sceFNID
                0x000000000002cf8c       0x90 /usr/local/ps3dev/libpsl1ght/ppu/lib/liblv2.a(sprx.o)
                0x000000000002cf8c                sysProcessExit_fnid
                0x000000000002cf8c                sysPrxForUser
                0x000000000002cf90                sysProcessExitSpawn2_fnid
                0x000000000002cf94                sysProcessExitSpawnWithLevel_fnid
                0x000000000002cf98                sysThreadCreateEx_fnid
                0x000000000002cf9c                sysThreadExit_fnid
                0x000000000002cfa0                sysThreadGetId_fnid
                0x000000000002cfa4                sysThreadOnce_fnid
                0x000000000002cfa8                sysThreadInitialzeTLS_fnid
                0x000000000002cfac                sysSpuElfGetSegments_fnid
                0x000000000002cfb0                sysSpuElfGetInformation_fnid
                0x000000000002cfb4                sysSpuRawLoad_fnid
                0x000000000002cfb8                sysSpuRawImageLoad_fnid
                0x000000000002cfbc                sysSpuImageClose_fnid
                0x000000000002cfc0                sysSpuImageImport_fnid
                0x000000000002cfc4                sysLwMutexCreate_fnid
                0x000000000002cfc8                sysLwMutexDestroy_fnid
                0x000000000002cfcc                sysLwMutexLock_fnid
                0x000000000002cfd0                sysLwMutexTryLock_fnid
                0x000000000002cfd4                sysLwMutexUnlock_fnid
                0x000000000002cfd8                sysLwCondCreate_fnid
                0x000000000002cfdc                sysLwCondWait_fnid
                0x000000000002cfe0                sysLwCondSignal_fnid
                0x000000000002cfe4                sysLwCondSignalTo_fnid
                0x000000000002cfe8                sysLwCondSignalAll_fnid
                0x000000000002cfec                sysLwCondDestroy_fnid
                0x000000000002cff0                sysGetSystemTime_fnid
                0x000000000002cff4                sysMMapperFreeMemory_fnid
                0x000000000002cff8                sysMMapperMapMemory_fnid
                0x000000000002cffc                sysMMapperUnmapMemory_fnid
                0x000000000002d000                sysMMapperAllocateMemory_fnid
                0x000000000002d004                sysMMapperAllocateMemoryFromContainer_fnid
                0x000000000002d008                sysSpinlockInitialize_fnid
                0x000000000002d00c                sysSpinlockLock_fnid
                0x000000000002d010                sysSpinlockTryLock_fnid
                0x000000000002d014                sysSpinlockUnlock_fnid
                0x000000000002d018                sysInterruptThreadDisestablish_fnid

.rodata.sceVNID
 *(.rodata.sceVNID .rodata.sceVNID.*)

.rodata.sceTNID
 *(.rodata.sceTNID .rodata.sceTNID.*)

.rodata.sceVStub
 *(.rodata.sceVStub)
 *(SORT(.rodata.sceVStub.*))
                0x000000000002d01c                PROVIDE (__libentstart, .)

.lib.ent.top
 *(.lib.ent.top)

.lib.ent        0x000000000002d01c        0x0
 *(.lib.ent)
 .lib.ent       0x000000000002d01c        0x0 /usr/local/ps3dev/ppu/lib/gcc/powerpc64-ps3-elf/4.5.2/../../../../powerpc64-ps3-elf/lib/lv2-sprx.o

.lib.ent.btm
 *(.lib.ent.btm)
                0x000000000002d01c                PROVIDE (__libentend, .)
                0x000000000002d01c                PROVIDE (__libstubstart, .)

.lib.stub.top
 *(.lib.stub.top)

.lib.stub       0x000000000002d01c       0xb0
 *(.lib.stub)
 .lib.stub      0x000000000002d01c        0x0 /usr/local/ps3dev/ppu/lib/gcc/powerpc64-ps3-elf/4.5.2/../../../../powerpc64-ps3-elf/lib/lv2-sprx.o
 .lib.stub      0x000000000002d01c       0x2c /usr/local/ps3dev/libpsl1ght/ppu/lib/libgcm_sys.a(sprx.o)
 .lib.stub      0x000000000002d048       0x2c /usr/local/ps3dev/libpsl1ght/ppu/lib/libio.a(sprx.o)
 .lib.stub      0x000000000002d074       0x2c /usr/local/ps3dev/libpsl1ght/ppu/lib/libsysutil.a(sprx.o)
 .lib.stub      0x000000000002d0a0       0x2c /usr/local/ps3dev/libpsl1ght/ppu/lib/liblv2.a(sprx.o)

.lib.stub.btm
 *(.lib.stub.btm)
                0x000000000002d0cc                PROVIDE (__libstubend, .)

.ppu_rodata
 *(.ppu_rodata .ppu_rodata.*)

.sys_proc_param
 *(.sys_proc_param)

.sys_proc_prx_param
                0x000000000002d0cc       0x28
 *(.sys_proc_prx_param)
 .sys_proc_prx_param
                0x000000000002d0cc       0x28 /usr/local/ps3dev/ppu/lib/gcc/powerpc64-ps3-elf/4.5.2/../../../../powerpc64-ps3-elf/lib/lv2-sprx.o
                0x0000000000030000                . = ALIGN (0x10000)

.ppu_data
 *(.ppu_data .ppu_data.*)

.sdata2
 *(.sdata2 .sdata2.* .gnu.linkonce.s2.*)

.sbss2
 *(.sbss2 .sbss2.* .gnu.linkonce.sb2.*)

.eh_frame
 *(.eh_frame)

.gcc_except_table
 *(.gcc_except_table .gcc_except_table.*)
                0x0000000000030000                . = ALIGN (0x8)

.preinit_array  0x0000000000030000        0x0
                0x0000000000030000                PROVIDE (__preinit_array_start, .)
 *(.preinit_array)
                0x0000000000030000                PROVIDE (__preinit_array_end, .)

.init_array     0x0000000000030000        0x0
                0x0000000000030000                PROVIDE (__init_array_start, .)
 *(SORT(.init_array.*))
 *(.init_array)
                0x0000000000030000                PROVIDE (__init_array_end, .)

.fini_array     0x0000000000030000        0x0
                0x0000000000030000                PROVIDE (__fini_array_start, .)
 *(.fini_array)
 *(SORT(.fini_array.*))
                0x0000000000030000                PROVIDE (__fini_array_end, .)

.ctors          0x0000000000030000       0x28
 *crtbegin.o(.ctors)
 .ctors         0x0000000000030000        0x8 /usr/local/ps3dev/ppu/lib/gcc/powerpc64-ps3-elf/4.5.2/crtbegin.o
 *crtbegin?.o(.ctors)
 *(EXCLUDE_FILE(*crtend?.o *crtend.o) .ctors)
 *(SORT(.ctors.*))
 .ctors.65430   0x0000000000030008        0x8 /usr/local/ps3dev/ppu/lib/gcc/powerpc64-ps3-elf/4.5.2/../../../../powerpc64-ps3-elf/lib/libc.a(lib_a-lock_internal.o)
 .ctors.65431   0x0000000000030010        0x8 /usr/local/ps3dev/ppu/lib/gcc/powerpc64-ps3-elf/4.5.2/../../../../powerpc64-ps3-elf/lib/lv2-crt0.o
 .ctors.65432   0x0000000000030018        0x8 /usr/local/ps3dev/libpsl1ght/ppu/lib/librt.a(sbrk.o)
 *(.ctors)
 .ctors         0x0000000000030020        0x8 /usr/local/ps3dev/ppu/lib/gcc/powerpc64-ps3-elf/4.5.2/crtend.o

.dtors          0x0000000000030028       0x18
 *crtbegin.o(.dtors)
 .dtors         0x0000000000030028        0x8 /usr/local/ps3dev/ppu/lib/gcc/powerpc64-ps3-elf/4.5.2/crtbegin.o
 *crtbegin?.o(.dtors)
 *(EXCLUDE_FILE(*crtend?.o *crtend.o) .dtors)
 *(SORT(.dtors.*))
 .dtors.65432   0x0000000000030030        0x8 /usr/local/ps3dev/libpsl1ght/ppu/lib/librt.a(sbrk.o)
 *(.dtors)
 .dtors         0x0000000000030038        0x8 /usr/local/ps3dev/ppu/lib/gcc/powerpc64-ps3-elf/4.5.2/crtend.o
                0x0000000000030038                __DTOR_END__

.jcr            0x0000000000030040        0x8
 *(.jcr)
 .jcr           0x0000000000030040        0x0 /usr/local/ps3dev/ppu/lib/gcc/powerpc64-ps3-elf/4.5.2/crtbegin.o
 .jcr           0x0000000000030040        0x8 /usr/local/ps3dev/ppu/lib/gcc/powerpc64-ps3-elf/4.5.2/crtend.o

.data.rel.ro
 *(.data.rel.ro.local*)
 *(.data.rel.ro*)

.dynamic
 *(.dynamic)

.data.sceFStub  0x0000000000030048      0x2f0
 *(.data.sceFStub)
 *(SORT(.data.sceFStub.*))
 .data.sceFStub.cellGcmSys
                0x0000000000030048       0xec /usr/local/ps3dev/libpsl1ght/ppu/lib/libgcm_sys.a(sprx.o)
                0x0000000000030048                gcmInitBody_stub
                0x000000000003004c                gcmSetDisplayBuffer_stub
                0x0000000000030050                gcmGetControlRegister_stub
                0x0000000000030054                gcmAddressToOffset_stub
                0x0000000000030058                gcmGetConfiguration_stub
                0x000000000003005c                gcmGetCurrentField_stub
                0x0000000000030060                gcmSetFlipMode_stub
                0x0000000000030064                gcmGetFlipStatus_stub
                0x0000000000030068                gcmGetLastFlipTime_stub
                0x000000000003006c                gcmGetVBlankCount_stub
                0x0000000000030070                gcmSetWaitFlip_stub
                0x0000000000030074                gcmSetFlipStatus_stub
                0x0000000000030078                gcmResetFlipStatus_stub
                0x000000000003007c                gcmSetFlip_stub
                0x0000000000030080                gcmSetFlipImmediate_stub
                0x0000000000030084                gcmFunc15_stub
                0x0000000000030088                gcmFunc3_stub
                0x000000000003008c                gcmFunc1_stub
                0x0000000000030090                gcmFunc2_stub
                0x0000000000030094                gcmFunc4_stub
                0x0000000000030098                gcmFunc12_stub
                0x000000000003009c                gcmFunc13_stub
                0x00000000000300a0                gcmGetReport_stub
                0x00000000000300a4                gcmSetTile_stub
                0x00000000000300a8                gcmBindTile_stub
                0x00000000000300ac                gcmUnbindTile_stub
                0x00000000000300b0                gcmSetZcull_stub
                0x00000000000300b4                gcmBindZcull_stub
                0x00000000000300b8                gcmUnbindZcull_stub
                0x00000000000300bc                gcmGetTimeStamp_stub
                0x00000000000300c0                gcmSetVBlankFrequency_stub
                0x00000000000300c4                gcmSetSecondVFrequency_stub
                0x00000000000300c8                gcmSetDebugOutputLevel_stub
                0x00000000000300cc                gcmGetLabelAddress_stub
                0x00000000000300d0                gcmSetVBlankHandlerEx_stub
                0x00000000000300d4                gcmSetFlipHandlerEx_stub
                0x00000000000300d8                gcmSetSecondVHandlerEx_stub
                0x00000000000300dc                gcmSetGraphicsHandlerEx_stub
                0x00000000000300e0                gcmTerminate_stub
                0x00000000000300e4                gcmMapMainMemory_stub
                0x00000000000300e8                gcmMapEaIoAddress_stub
                0x00000000000300ec                gcmUnmapEaIoAddress_stub
                0x00000000000300f0                gcmUnmapIoAddress_stub
                0x00000000000300f4                gcmIoOffsetToAddress_stub
                0x00000000000300f8                gcmSetDefaultCommandBuffer_stub
                0x00000000000300fc                gcmSetTileInfo_stub
                0x0000000000030100                gcmGetTiledPitchSize_stub
                0x0000000000030104                gcmSetInvalidateTile_stub
                0x0000000000030108                gcmSetUserCommand_stub
                0x000000000003010c                gcmSetUserHandlerEx_stub
                0x0000000000030110                gcmSetQueueHandlerEx_stub
                0x0000000000030114                gcmSetPrepareFlip_stub
                0x0000000000030118                gcmGetOffsetTable_stub
                0x000000000003011c                gcmGetLastSecondVTime_stub
                0x0000000000030120                gcmSortRemapEaIoAddress_stub
                0x0000000000030124                gcmGetDisplayBufferByFlipIndex_stub
                0x0000000000030128                gcmGcmGetDefaultCommandWordSize_stub
                0x000000000003012c                gcmGcmGetDefaultSegmentWordSize_stub
                0x0000000000030130                gcmSetDefaultCommandBufferAndSegmentWordSize_stub
 .data.sceFStub.cellSysutil
                0x0000000000030134       0xb8 /usr/local/ps3dev/libpsl1ght/ppu/lib/libsysutil.a(sprx.o)
                0x0000000000030134                videoGetResolution_stub
                0x0000000000030138                videoConfigure_stub
                0x000000000003013c                videoGetState_stub
                0x0000000000030140                videoGetDeviceInfo_stub
                0x0000000000030144                videoGetConfiguration_stub
                0x0000000000030148                videoGetResolutionAvailability_stub
                0x000000000003014c                videoDebugSetMonitorType_stub
                0x0000000000030150                videoRegisterCallbackEx_stub
                0x0000000000030154                videoUnregisterCallback_stub
                0x0000000000030158                videoGetNumberOfDevice_stub
                0x000000000003015c                videoGetConvertCursorColorInfo_stub
                0x0000000000030160                msgDialogClose_stub
                0x0000000000030164                msgDialogOpenErrorCodeEx_stub
                0x0000000000030168                msgDialogOpenEx_stub
                0x000000000003016c                msgDialogProgressBarInc_stub
                0x0000000000030170                msgDialogAbort_stub
                0x0000000000030174                msgDialogOpen2Ex_stub
                0x0000000000030178                msgDialogProgressBarReset_stub
                0x000000000003017c                msgDialogProgressBarSetMsg_stub
                0x0000000000030180                oskGetInputText_stub
                0x0000000000030184                oskSetInitialInputDevice_stub
                0x0000000000030188                oskGetSize_stub
                0x000000000003018c                oskUnloadAsync_stub
                0x0000000000030190                oskDisableDimmer_stub
                0x0000000000030194                oskSetKeyLayoutOption_stub
                0x0000000000030198                oskAbort_stub
                0x000000000003019c                oskSetDeviceMask_stub
                0x00000000000301a0                oskSetSeparateWindowOption_stub
                0x00000000000301a4                oskAddSupportLanguage_stub
                0x00000000000301a8                oskLoadAsync_stub
                0x00000000000301ac                oskSetInitialKeyLayout_stub
                0x00000000000301b0                oskSetLayoutMode_stub
                0x00000000000301b4                sysUtilRegisterCallbackEx_stub
                0x00000000000301b8                sysUtilCheckCallback_stub
                0x00000000000301bc                sysUtilUnregisterCallback_stub
                0x00000000000301c0                sysSaveListLoad2Ex_stub
                0x00000000000301c4                sysSaveListSave2Ex_stub
                0x00000000000301c8                sysSaveListAutoLoadEx_stub
                0x00000000000301cc                sysSaveListAutoSaveEx_stub
                0x00000000000301d0                sysSaveFixedLoad2Ex_stub
                0x00000000000301d4                sysSaveFixedSave2Ex_stub
                0x00000000000301d8                sysSaveAutoLoad2Ex_stub
                0x00000000000301dc                sysSaveAutoSave2Ex_stub
                0x00000000000301e0                sysSaveDelete2_stub
                0x00000000000301e4                sysDiscRegisterDiscChangeCallbackEx_stub
                0x00000000000301e8                sysDiscUnregisterDiscChangeCallback_stub
 .data.sceFStub.sysPrxForUser
                0x00000000000301ec       0x90 /usr/local/ps3dev/libpsl1ght/ppu/lib/liblv2.a(sprx.o)
                0x00000000000301ec                sysProcessExit_stub
                0x00000000000301f0                sysProcessExitSpawn2_stub
                0x00000000000301f4                sysProcessExitSpawnWithLevel_stub
                0x00000000000301f8                sysThreadCreateEx_stub
                0x00000000000301fc                sysThreadExit_stub
                0x0000000000030200                sysThreadGetId_stub
                0x0000000000030204                sysThreadOnce_stub
                0x0000000000030208                sysThreadInitialzeTLS_stub
                0x000000000003020c                sysSpuElfGetSegments_stub
                0x0000000000030210                sysSpuElfGetInformation_stub
                0x0000000000030214                sysSpuRawLoad_stub
                0x0000000000030218                sysSpuRawImageLoad_stub
                0x000000000003021c                sysSpuImageClose_stub
                0x0000000000030220                sysSpuImageImport_stub
                0x0000000000030224                sysLwMutexCreate_stub
                0x0000000000030228                sysLwMutexDestroy_stub
                0x000000000003022c                sysLwMutexLock_stub
                0x0000000000030230                sysLwMutexTryLock_stub
                0x0000000000030234                sysLwMutexUnlock_stub
                0x0000000000030238                sysLwCondCreate_stub
                0x000000000003023c                sysLwCondWait_stub
                0x0000000000030240                sysLwCondSignal_stub
                0x0000000000030244                sysLwCondSignalTo_stub
                0x0000000000030248                sysLwCondSignalAll_stub
                0x000000000003024c                sysLwCondDestroy_stub
                0x0000000000030250                sysGetSystemTime_stub
                0x0000000000030254                sysMMapperFreeMemory_stub
                0x0000000000030258                sysMMapperMapMemory_stub
                0x000000000003025c                sysMMapperUnmapMemory_stub
                0x0000000000030260                sysMMapperAllocateMemory_stub
                0x0000000000030264                sysMMapperAllocateMemoryFromContainer_stub
                0x0000000000030268                sysSpinlockInitialize_stub
                0x000000000003026c                sysSpinlockLock_stub
                0x0000000000030270                sysSpinlockTryLock_stub
                0x0000000000030274                sysSpinlockUnlock_stub
                0x0000000000030278                sysInterruptThreadDisestablish_stub
 .data.sceFStub.sys_io
                0x000000000003027c       0xbc /usr/local/ps3dev/libpsl1ght/ppu/lib/libio.a(sprx.o)
                0x000000000003027c                sys_config_start_stub
                0x0000000000030280                sys_config_stop_stub
                0x0000000000030284                sys_config_add_service_listener_stub
                0x0000000000030288                sys_config_remove_service_listener_stub
                0x000000000003028c                sys_config_register_service_stub
                0x0000000000030290                sys_config_unregister_service_stub
                0x0000000000030294                ioPadInit_stub
                0x0000000000030298                ioPadEnd_stub
                0x000000000003029c                ioPadClearBuf_stub
                0x00000000000302a0                ioPadInfoPressMode_stub
                0x00000000000302a4                ioPadLddRegisterController_stub
                0x00000000000302a8                ioPadGetInfo_stub
                0x00000000000302ac                ioPadGetRawData_stub
                0x00000000000302b0                ioPadGetDataExtra_stub
                0x00000000000302b4                ioPadInfoSensorMode_stub
                0x00000000000302b8                ioPadGetData_stub
                0x00000000000302bc                ioPadLddGetPortNo_stub
                0x00000000000302c0                ioPadLddDataInsert_stub
                0x00000000000302c4                ioPadSetSensorMode_stub
                0x00000000000302c8                ioPadGetCapabilityInfo_stub
                0x00000000000302cc                ioPadLddUnregisterController_stub
                0x00000000000302d0                ioPadSetActDirect_stub
                0x00000000000302d4                ioPadSetPressMode_stub
                0x00000000000302d8                ioPadPeriphGetInfo_stub
                0x00000000000302dc                ioPadSetPortSetting_stub
                0x00000000000302e0                ioPadPeriphGetData_stub
                0x00000000000302e4                ioPadGetInfo2_stub
                0x00000000000302e8                ioMouseInit_stub
                0x00000000000302ec                ioMouseEnd_stub
                0x00000000000302f0                ioMouseClearBuf_stub
                0x00000000000302f4                ioMouseGetInfo_stub
                0x00000000000302f8                ioMouseGetTabletDataList_stub
                0x00000000000302fc                ioMouseSetTabletMode_stub
                0x0000000000030300                ioMouseGetData_stub
                0x0000000000030304                ioMouseInfoTabletMode_stub
                0x0000000000030308                ioMouseGetRawData_stub
                0x000000000003030c                ioMouseGetDataList_stub
                0x0000000000030310                ioKbInit_stub
                0x0000000000030314                ioKbEnd_stub
                0x0000000000030318                ioKbRead_stub
                0x000000000003031c                ioKbSetReadMode_stub
                0x0000000000030320                ioKbSetCodeType_stub
                0x0000000000030324                ioKbCnvRawCode_stub
                0x0000000000030328                ioKbSetLEDStatus_stub
                0x000000000003032c                ioKbGetInfo_stub
                0x0000000000030330                ioKbGetConfiguration_stub
                0x0000000000030334                ioKbClearBuf_stub

.toc1
 *(.toc1)

.opd            0x0000000000030338     0x2fd0
 *(.opd)
 .opd           0x0000000000030338       0x30 /usr/local/ps3dev/ppu/lib/gcc/powerpc64-ps3-elf/4.5.2/../../../../powerpc64-ps3-elf/lib/lv2-crti.o
                0x0000000000030338                _init
                0x0000000000030350                _fini
 .opd           0x0000000000030368       0x30 /usr/local/ps3dev/ppu/lib/gcc/powerpc64-ps3-elf/4.5.2/crtbegin.o
 .opd           0x0000000000030398       0x48 /usr/local/ps3dev/ppu/lib/gcc/powerpc64-ps3-elf/4.5.2/../../../../powerpc64-ps3-elf/lib/lv2-crt0.o
                0x00000000000303c8                _initialize
 .opd           0x00000000000303e0       0x78 main.o
                0x0000000000030410                sysutil_callback
                0x0000000000030428                program_exit_callback
                0x0000000000030440                main
 .opd           0x0000000000030458       0x60 rsxutil.o
                0x0000000000030458                set_render_target
                0x0000000000030470                init_screen
                0x0000000000030488                waitflip
                0x00000000000304a0                flip
 .opd           0x00000000000304b8       0x30 /usr/local/ps3dev/libpsl1ght/ppu/lib/librsx.a(init.o)
                0x00000000000304b8                rsxInit
                0x00000000000304d0                rsxSetupContextData
 .opd           0x00000000000304e8       0x48 /usr/local/ps3dev/libpsl1ght/ppu/lib/librsx.a(buffer.o)
                0x00000000000304e8                rsxResetCommandBuffer
                0x0000000000030500                rsxFlushBuffer
                0x0000000000030518                rsxFinish
 .opd           0x0000000000030530      0x5a0 /usr/local/ps3dev/libpsl1ght/ppu/lib/librsx.a(commands.o)
                0x0000000000030530                rsxContextCallback
                0x0000000000030548                rsxSetReturnCommand
                0x0000000000030560                rsxSetCallCommand
                0x0000000000030578                rsxSetJumpCommand
                0x0000000000030590                rsxSetNopCommand
                0x00000000000305a8                rsxSetClearColor
                0x00000000000305c0                rsxSetClearDepthValue
                0x00000000000305d8                rsxSetReferenceCommand
                0x00000000000305f0                rsxSetWriteBackendLabel
                0x0000000000030608                rsxSetWaitLabel
                0x0000000000030620                rsxSetWriteCommandLabel
                0x0000000000030638                rsxSetSurface
                0x0000000000030650                rsxSetColorMask
                0x0000000000030668                rsxSetColorMaskMRT
                0x0000000000030680                rsxSetShadeModel
                0x0000000000030698                rsxSetViewport
                0x00000000000306b0                rsxSetViewportClip
                0x00000000000306c8                rsxSetUserClipPlaneControl
                0x00000000000306e0                rsxSetDepthTestEnable
                0x00000000000306f8                rsxSetDepthFunc
                0x0000000000030710                rsxSetDepthWriteEnable
                0x0000000000030728                rsxSetCullFaceEnable
                0x0000000000030740                rsxSetCullFace
                0x0000000000030758                rsxSetFrontFace
                0x0000000000030770                rsxClearSurface
                0x0000000000030788                rsxLoadVertexProgramBlock
                0x00000000000307a0                rsxLoadFragmentProgramLocation
                0x00000000000307b8                rsxLoadVertexProgramParameterBlock
                0x00000000000307d0                rsxLoadVertexProgram
                0x00000000000307e8                rsxSetVertexProgramParameter
                0x0000000000030800                rsxDrawVertexBegin
                0x0000000000030818                rsxDrawVertexEnd
                0x0000000000030830                rsxDrawVertex2f
                0x0000000000030848                rsxDrawVertex3f
                0x0000000000030860                rsxDrawVertex4f
                0x0000000000030878                rsxInvalidateTextureCache
                0x0000000000030890                rsxLoadTexture
                0x00000000000308a8                rsxTextureControl
                0x00000000000308c0                rsxTextureFilter
                0x00000000000308d8                rsxTextureWrapMode
                0x00000000000308f0                rsxZControl
                0x0000000000030908                rsxBindVertexArrayAttrib
                0x0000000000030920                rsxDrawVertexArray
                0x0000000000030938                rsxDrawIndexArray
                0x0000000000030950                rsxSetScissor
                0x0000000000030968                rsxInlineTransfer
                0x0000000000030980                rsxSetFragmentProgramParameter
                0x0000000000030998                rsxSetBlendFunc
                0x00000000000309b0                rsxSetBlendEquation
                0x00000000000309c8                rsxSetBlendColor
                0x00000000000309e0                rsxSetBlendEnable
                0x00000000000309f8                rsxSetTransformBranchBits
                0x0000000000030a10                rsxSetTransferData
                0x0000000000030a28                rsxSetTransferDataMode
                0x0000000000030a40                rsxSetTransferDataOffset
                0x0000000000030a58                rsxSetTransferDataFormat
                0x0000000000030a70                rsxSetTransferImage
                0x0000000000030a88                rsxSetTransferScaleMode
                0x0000000000030aa0                rsxSetTransferScaleSurface
                0x0000000000030ab8                rsxSetTimeStamp
 .opd           0x0000000000030ad0       0x60 /usr/local/ps3dev/libpsl1ght/ppu/lib/librsx.a(mm.o)
                0x0000000000030ad0                rsxHeapInit
                0x0000000000030ae8                rsxMemalign
                0x0000000000030b00                rsxMalloc
                0x0000000000030b18                rsxFree
 .opd           0x0000000000030b30       0x78 /usr/local/ps3dev/libpsl1ght/ppu/lib/librsx.a(vertex_program.o)
                0x0000000000030b30                rsxVertexProgramGetUCode
                0x0000000000030b48                rsxVertexProgramGetConsts
                0x0000000000030b60                rsxVertexProgramGetConst
                0x0000000000030b78                rsxVertexProgramGetAttribs
                0x0000000000030b90                rsxVertexProgramGetAttrib
 .opd           0x0000000000030ba8       0x90 /usr/local/ps3dev/libpsl1ght/ppu/lib/librsx.a(fragment_program.o)
                0x0000000000030ba8                rsxFragmentProgramGetUCode
                0x0000000000030bc0                rsxFragmentProgramGetConsts
                0x0000000000030bd8                rsxFragmentProgramGetConst
                0x0000000000030bf0                rsxFragmentProgramGetAttribs
                0x0000000000030c08                rsxFragmentProgramGetAttrib
                0x0000000000030c20                rsxFragmentProgramGetConstOffsetTable
 .opd           0x0000000000030c38      0x588 /usr/local/ps3dev/libpsl1ght/ppu/lib/libgcm_sys.a(sprx.o)
                0x0000000000030c38                gcmInitBody
                0x0000000000030c50                gcmSetDisplayBuffer
                0x0000000000030c68                gcmGetControlRegister
                0x0000000000030c80                gcmAddressToOffset
                0x0000000000030c98                gcmGetConfiguration
                0x0000000000030cb0                gcmGetCurrentField
                0x0000000000030cc8                gcmSetFlipMode
                0x0000000000030ce0                gcmGetFlipStatus
                0x0000000000030cf8                gcmGetLastFlipTime
                0x0000000000030d10                gcmGetVBlankCount
                0x0000000000030d28                gcmSetWaitFlip
                0x0000000000030d40                gcmSetFlipStatus
                0x0000000000030d58                gcmResetFlipStatus
                0x0000000000030d70                gcmSetFlip
                0x0000000000030d88                gcmSetFlipImmediate
                0x0000000000030da0                gcmFunc15
                0x0000000000030db8                gcmFunc3
                0x0000000000030dd0                gcmFunc1
                0x0000000000030de8                gcmFunc2
                0x0000000000030e00                gcmFunc4
                0x0000000000030e18                gcmFunc12
                0x0000000000030e30                gcmFunc13
                0x0000000000030e48                gcmGetReport
                0x0000000000030e60                gcmSetTile
                0x0000000000030e78                gcmBindTile
                0x0000000000030e90                gcmUnbindTile
                0x0000000000030ea8                gcmSetZcull
                0x0000000000030ec0                gcmBindZcull
                0x0000000000030ed8                gcmUnbindZcull
                0x0000000000030ef0                gcmGetTimeStamp
                0x0000000000030f08                gcmSetVBlankFrequency
                0x0000000000030f20                gcmSetSecondVFrequency
                0x0000000000030f38                gcmSetDebugOutputLevel
                0x0000000000030f50                gcmGetLabelAddress
                0x0000000000030f68                gcmSetVBlankHandlerEx
                0x0000000000030f80                gcmSetFlipHandlerEx
                0x0000000000030f98                gcmSetSecondVHandlerEx
                0x0000000000030fb0                gcmSetGraphicsHandlerEx
                0x0000000000030fc8                gcmTerminate
                0x0000000000030fe0                gcmMapMainMemory
                0x0000000000030ff8                gcmMapEaIoAddress
                0x0000000000031010                gcmUnmapEaIoAddress
                0x0000000000031028                gcmUnmapIoAddress
                0x0000000000031040                gcmIoOffsetToAddress
                0x0000000000031058                gcmSetDefaultCommandBuffer
                0x0000000000031070                gcmSetTileInfo
                0x0000000000031088                gcmGetTiledPitchSize
                0x00000000000310a0                gcmSetInvalidateTile
                0x00000000000310b8                gcmSetUserCommand
                0x00000000000310d0                gcmSetUserHandlerEx
                0x00000000000310e8                gcmSetQueueHandlerEx
                0x0000000000031100                gcmSetPrepareFlip
                0x0000000000031118                gcmGetOffsetTable
                0x0000000000031130                gcmGetLastSecondVTime
                0x0000000000031148                gcmSortRemapEaIoAddress
                0x0000000000031160                gcmGetDisplayBufferByFlipIndex
                0x0000000000031178                gcmGcmGetDefaultCommandWordSize
                0x0000000000031190                gcmGcmGetDefaultSegmentWordSize
                0x00000000000311a8                gcmSetDefaultCommandBufferAndSegmentWordSize
 .opd           0x00000000000311c0      0x468 /usr/local/ps3dev/libpsl1ght/ppu/lib/libio.a(sprx.o)
                0x00000000000311c0                sys_config_start
                0x00000000000311d8                sys_config_stop
                0x00000000000311f0                sys_config_add_service_listener
                0x0000000000031208                sys_config_remove_service_listener
                0x0000000000031220                sys_config_register_service
                0x0000000000031238                sys_config_unregister_service
                0x0000000000031250                ioPadInit
                0x0000000000031268                ioPadEnd
                0x0000000000031280                ioPadClearBuf
                0x0000000000031298                ioPadInfoPressMode
                0x00000000000312b0                ioPadLddRegisterController
                0x00000000000312c8                ioPadGetInfo
                0x00000000000312e0                ioPadGetRawData
                0x00000000000312f8                ioPadGetDataExtra
                0x0000000000031310                ioPadInfoSensorMode
                0x0000000000031328                ioPadGetData
                0x0000000000031340                ioPadLddGetPortNo
                0x0000000000031358                ioPadLddDataInsert
                0x0000000000031370                ioPadSetSensorMode
                0x0000000000031388                ioPadGetCapabilityInfo
                0x00000000000313a0                ioPadLddUnregisterController
                0x00000000000313b8                ioPadSetActDirect
                0x00000000000313d0                ioPadSetPressMode
                0x00000000000313e8                ioPadPeriphGetInfo
                0x0000000000031400                ioPadSetPortSetting
                0x0000000000031418                ioPadPeriphGetData
                0x0000000000031430                ioPadGetInfo2
                0x0000000000031448                ioMouseInit
                0x0000000000031460                ioMouseEnd
                0x0000000000031478                ioMouseClearBuf
                0x0000000000031490                ioMouseGetInfo
                0x00000000000314a8                ioMouseGetTabletDataList
                0x00000000000314c0                ioMouseSetTabletMode
                0x00000000000314d8                ioMouseGetData
                0x00000000000314f0                ioMouseInfoTabletMode
                0x0000000000031508                ioMouseGetRawData
                0x0000000000031520                ioMouseGetDataList
                0x0000000000031538                ioKbInit
                0x0000000000031550                ioKbEnd
                0x0000000000031568                ioKbRead
                0x0000000000031580                ioKbSetReadMode
                0x0000000000031598                ioKbSetCodeType
                0x00000000000315b0                ioKbCnvRawCode
                0x00000000000315c8                ioKbSetLEDStatus
                0x00000000000315e0                ioKbGetInfo
                0x00000000000315f8                ioKbGetConfiguration
                0x0000000000031610                ioKbClearBuf
 .opd           0x0000000000031628      0x450 /usr/local/ps3dev/libpsl1ght/ppu/lib/libsysutil.a(sprx.o)
                0x0000000000031628                videoGetResolution
                0x0000000000031640                videoConfigure
                0x0000000000031658                videoGetState
                0x0000000000031670                videoGetDeviceInfo
                0x0000000000031688                videoGetConfiguration
                0x00000000000316a0                videoGetResolutionAvailability
                0x00000000000316b8                videoDebugSetMonitorType
                0x00000000000316d0                videoRegisterCallbackEx
                0x00000000000316e8                videoUnregisterCallback
                0x0000000000031700                videoGetNumberOfDevice
                0x0000000000031718                videoGetConvertCursorColorInfo
                0x0000000000031730                msgDialogClose
                0x0000000000031748                msgDialogOpenErrorCodeEx
                0x0000000000031760                msgDialogOpenEx
                0x0000000000031778                msgDialogProgressBarInc
                0x0000000000031790                msgDialogAbort
                0x00000000000317a8                msgDialogOpen2Ex
                0x00000000000317c0                msgDialogProgressBarReset
                0x00000000000317d8                msgDialogProgressBarSetMsg
                0x00000000000317f0                oskGetInputText
                0x0000000000031808                oskSetInitialInputDevice
                0x0000000000031820                oskGetSize
                0x0000000000031838                oskUnloadAsync
                0x0000000000031850                oskDisableDimmer
                0x0000000000031868                oskSetKeyLayoutOption
                0x0000000000031880                oskAbort
                0x0000000000031898                oskSetDeviceMask
                0x00000000000318b0                oskSetSeparateWindowOption
                0x00000000000318c8                oskAddSupportLanguage
                0x00000000000318e0                oskLoadAsync
                0x00000000000318f8                oskSetInitialKeyLayout
                0x0000000000031910                oskSetLayoutMode
                0x0000000000031928                sysUtilRegisterCallbackEx
                0x0000000000031940                sysUtilCheckCallback
                0x0000000000031958                sysUtilUnregisterCallback
                0x0000000000031970                sysSaveListLoad2Ex
                0x0000000000031988                sysSaveListSave2Ex
                0x00000000000319a0                sysSaveListAutoLoadEx
                0x00000000000319b8                sysSaveListAutoSaveEx
                0x00000000000319d0                sysSaveFixedLoad2Ex
                0x00000000000319e8                sysSaveFixedSave2Ex
                0x0000000000031a00                sysSaveAutoLoad2Ex
                0x0000000000031a18                sysSaveAutoSave2Ex
                0x0000000000031a30                sysSaveDelete2
                0x0000000000031a48                sysDiscRegisterDiscChangeCallbackEx
                0x0000000000031a60                sysDiscUnregisterDiscChangeCallback
 .opd           0x0000000000031a78      0x138 /usr/local/ps3dev/libpsl1ght/ppu/lib/libsysutil.a(sysutil_wrapper.o)
                0x0000000000031a78                sysUtilRegisterCallback
                0x0000000000031a90                msgDialogOpen
                0x0000000000031aa8                msgDialogOpen2
                0x0000000000031ac0                msgDialogOpenErrorCode
                0x0000000000031ad8                sysSaveListLoad2
                0x0000000000031af0                sysSaveListSave2
                0x0000000000031b08                sysSaveListAutoLoad
                0x0000000000031b20                sysSaveListAutoSave
                0x0000000000031b38                sysSaveFixedLoad2
                0x0000000000031b50                sysSaveFixedSave2
                0x0000000000031b68                sysSaveAutoLoad2
                0x0000000000031b80                sysSaveAutoSave2
                0x0000000000031b98                sysDiscRegisterDiscChangeCallback
 .opd           0x0000000000031bb0       0x48 /usr/local/ps3dev/libpsl1ght/ppu/lib/librt.a(sbrk.o)
                0x0000000000031be0                __librt_sbrk_r
 .opd           0x0000000000031bf8       0x18 /usr/local/ps3dev/libpsl1ght/ppu/lib/librt.a(exit.o)
                0x0000000000031bf8                __librt_exit
 .opd           0x0000000000031c10       0x18 /usr/local/ps3dev/libpsl1ght/ppu/lib/librt.a(close.o)
                0x0000000000031c10                __librt_close_r
 .opd           0x0000000000031c28       0x30 /usr/local/ps3dev/libpsl1ght/ppu/lib/librt.a(lseek.o)
                0x0000000000031c28                __librt_lseek_r
                0x0000000000031c40                __librt_lseek64_r
 .opd           0x0000000000031c58       0x18 /usr/local/ps3dev/libpsl1ght/ppu/lib/librt.a(read.o)
                0x0000000000031c58                __librt_read_r
 .opd           0x0000000000031c70       0x18 /usr/local/ps3dev/libpsl1ght/ppu/lib/librt.a(open.o)
                0x0000000000031c70                __librt_open_r
 .opd           0x0000000000031c88       0x30 /usr/local/ps3dev/libpsl1ght/ppu/lib/librt.a(sleep.o)
                0x0000000000031c88                __librt_usleep_r
                0x0000000000031ca0                __librt_sleep_r
 .opd           0x0000000000031cb8       0x18 /usr/local/ps3dev/libpsl1ght/ppu/lib/librt.a(write.o)
                0x0000000000031cb8                __librt_write_r
 .opd           0x0000000000031cd0       0x60 /usr/local/ps3dev/libpsl1ght/ppu/lib/librt.a(fstat.o)
                0x0000000000031cd0                __librt_fstat_r
                0x0000000000031ce8                __librt_fstat64_r
                0x0000000000031d00                __librt_stat_r
                0x0000000000031d18                __librt_stat64_r
 .opd           0x0000000000031d30      0x150 /usr/local/ps3dev/libpsl1ght/ppu/lib/librt.a(socket.o)
                0x0000000000031d30                accept
                0x0000000000031d48                bind
                0x0000000000031d60                connect
                0x0000000000031d78                listen
                0x0000000000031d90                socket
                0x0000000000031da8                send
                0x0000000000031dc0                sendto
                0x0000000000031dd8                recv
                0x0000000000031df0                recvfrom
                0x0000000000031e08                shutdown
                0x0000000000031e20                inet_aton
                0x0000000000031e38                inet_pton
                0x0000000000031e50                select
                0x0000000000031e68                closesocket
 .opd           0x0000000000031e80       0x78 /usr/local/ps3dev/libpsl1ght/ppu/lib/librt.a(lock.o)
                0x0000000000031e80                __librt_sys_lwmutex_create_r
                0x0000000000031e98                __librt_sys_lwmutex_destroy_r
                0x0000000000031eb0                __librt_sys_lwmutex_lock_r
                0x0000000000031ec8                __librt_sys_lwmutex_trylock_r
                0x0000000000031ee0                __librt_sys_lwmutex_unlock_r
 .opd           0x0000000000031ef8       0xc0 /usr/local/ps3dev/libpsl1ght/ppu/lib/librt.a(dirent.o)
                0x0000000000031f10                __librt_opendir_r
                0x0000000000031f28                __librt_readdir_r
                0x0000000000031f40                __librt_readdir_r_r
                0x0000000000031f58                __librt_closedir_r
                0x0000000000031f70                __librt_telldir_r
                0x0000000000031f88                __librt_rewinddir_r
                0x0000000000031fa0                __librt_seekdir_r
 .opd           0x0000000000031fb8       0x18 /usr/local/ps3dev/libpsl1ght/ppu/lib/librt.a(mkdir.o)
                0x0000000000031fb8                __librt_mkdir_r
 .opd           0x0000000000031fd0       0x18 /usr/local/ps3dev/libpsl1ght/ppu/lib/librt.a(times.o)
                0x0000000000031fd0                __librt_times_r
 .opd           0x0000000000031fe8       0x18 /usr/local/ps3dev/libpsl1ght/ppu/lib/librt.a(umask.o)
                0x0000000000031fe8                __librt_umask_r
 .opd           0x0000000000032000       0x48 /usr/local/ps3dev/libpsl1ght/ppu/lib/librt.a(lv2errno.o)
                0x0000000000032000                lv2error
                0x0000000000032018                lv2errno
                0x0000000000032030                lv2errno_r
 .opd           0x0000000000032048       0x60 /usr/local/ps3dev/libpsl1ght/ppu/lib/librt.a(heap.o)
                0x0000000000032048                heapInit
                0x0000000000032060                heapAllocate
                0x0000000000032078                heapAllocateAligned
                0x0000000000032090                heapFree
 .opd           0x00000000000320a8       0x18 /usr/local/ps3dev/libpsl1ght/ppu/lib/librt.a(chmod.o)
                0x00000000000320a8                __librt_chmod_r
 .opd           0x00000000000320c0       0x18 /usr/local/ps3dev/libpsl1ght/ppu/lib/librt.a(rmdir.o)
                0x00000000000320c0                __librt_rmdir_r
 .opd           0x00000000000320d8       0x18 /usr/local/ps3dev/libpsl1ght/ppu/lib/librt.a(isatty.o)
                0x00000000000320d8                __librt_isatty_r
 .opd           0x00000000000320f0       0x18 /usr/local/ps3dev/libpsl1ght/ppu/lib/librt.a(gettod.o)
                0x00000000000320f0                __librt_gettod_r
 .opd           0x0000000000032108       0x18 /usr/local/ps3dev/libpsl1ght/ppu/lib/librt.a(settod.o)
                0x0000000000032108                __librt_settod_r
 .opd           0x0000000000032120      0x360 /usr/local/ps3dev/libpsl1ght/ppu/lib/liblv2.a(sprx.o)
                0x0000000000032120                sysProcessExit
                0x0000000000032138                sysProcessExitSpawn2
                0x0000000000032150                sysProcessExitSpawnWithLevel
                0x0000000000032168                sysThreadCreateEx
                0x0000000000032180                sysThreadExit
                0x0000000000032198                sysThreadGetId
                0x00000000000321b0                sysThreadOnce
                0x00000000000321c8                sysThreadInitialzeTLS
                0x00000000000321e0                sysSpuElfGetSegments
                0x00000000000321f8                sysSpuElfGetInformation
                0x0000000000032210                sysSpuRawLoad
                0x0000000000032228                sysSpuRawImageLoad
                0x0000000000032240                sysSpuImageClose
                0x0000000000032258                sysSpuImageImport
                0x0000000000032270                sysLwMutexCreate
                0x0000000000032288                sysLwMutexDestroy
                0x00000000000322a0                sysLwMutexLock
                0x00000000000322b8                sysLwMutexTryLock
                0x00000000000322d0                sysLwMutexUnlock
                0x00000000000322e8                sysLwCondCreate
                0x0000000000032300                sysLwCondWait
                0x0000000000032318                sysLwCondSignal
                0x0000000000032330                sysLwCondSignalTo
                0x0000000000032348                sysLwCondSignalAll
                0x0000000000032360                sysLwCondDestroy
                0x0000000000032378                sysGetSystemTime
                0x0000000000032390                sysMMapperFreeMemory
                0x00000000000323a8                sysMMapperMapMemory
                0x00000000000323c0                sysMMapperUnmapMemory
                0x00000000000323d8                sysMMapperAllocateMemory
                0x00000000000323f0                sysMMapperAllocateMemoryFromContainer
                0x0000000000032408                sysSpinlockInitialize
                0x0000000000032420                sysSpinlockLock
                0x0000000000032438                sysSpinlockTryLock
                0x0000000000032450                sysSpinlockUnlock
                0x0000000000032468                sysInterruptThreadDisestablish
 .opd           0x0000000000032480       0x30 /usr/local/ps3dev/ppu/lib/gcc/powerpc64-ps3-elf/4.5.2/../../../../powerpc64-ps3-elf/lib/libsysbase.a(sleep.o)
                0x0000000000032480                usleep
                0x0000000000032498                sleep
 .opd           0x00000000000324b0       0x18 /usr/local/ps3dev/ppu/lib/gcc/powerpc64-ps3-elf/4.5.2/../../../../powerpc64-ps3-elf/lib/libc.a(lib_a-atexit.o)
                0x00000000000324b0                atexit
 .opd           0x00000000000324c8       0x18 /usr/local/ps3dev/ppu/lib/gcc/powerpc64-ps3-elf/4.5.2/../../../../powerpc64-ps3-elf/lib/libc.a(lib_a-errno.o)
                0x00000000000324c8                __errno
 .opd           0x00000000000324e0       0x18 /usr/local/ps3dev/ppu/lib/gcc/powerpc64-ps3-elf/4.5.2/../../../../powerpc64-ps3-elf/lib/libc.a(lib_a-exit.o)
                0x00000000000324e0                exit
 .opd           0x00000000000324f8       0x18 /usr/local/ps3dev/ppu/lib/gcc/powerpc64-ps3-elf/4.5.2/../../../../powerpc64-ps3-elf/lib/libc.a(lib_a-getreent.o)
                0x00000000000324f8                __getreent
 .opd           0x0000000000032510       0x18 /usr/local/ps3dev/ppu/lib/gcc/powerpc64-ps3-elf/4.5.2/../../../../powerpc64-ps3-elf/lib/libc.a(lib_a-malign.o)
                0x0000000000032510                memalign
 .opd           0x0000000000032528       0x18 /usr/local/ps3dev/ppu/lib/gcc/powerpc64-ps3-elf/4.5.2/../../../../powerpc64-ps3-elf/lib/libc.a(lib_a-malignr.o)
                0x0000000000032528                _memalign_r
 .opd           0x0000000000032540       0x30 /usr/local/ps3dev/ppu/lib/gcc/powerpc64-ps3-elf/4.5.2/../../../../powerpc64-ps3-elf/lib/libc.a(lib_a-malloc.o)
                0x0000000000032540                malloc
                0x0000000000032558                free
 .opd           0x0000000000032570       0x18 /usr/local/ps3dev/ppu/lib/gcc/powerpc64-ps3-elf/4.5.2/../../../../powerpc64-ps3-elf/lib/libc.a(lib_a-mallocr.o)
                0x0000000000032570                _malloc_r
 .opd           0x0000000000032588       0x18 /usr/local/ps3dev/ppu/lib/gcc/powerpc64-ps3-elf/4.5.2/../../../../powerpc64-ps3-elf/lib/libc.a(lib_a-memset.o)
                0x0000000000032588                memset
 .opd           0x00000000000325a0       0x30 /usr/local/ps3dev/ppu/lib/gcc/powerpc64-ps3-elf/4.5.2/../../../../powerpc64-ps3-elf/lib/libc.a(lib_a-mlock.o)
                0x00000000000325a0                __malloc_lock
                0x00000000000325b8                __malloc_unlock
 .opd           0x00000000000325d0       0x30 /usr/local/ps3dev/ppu/lib/gcc/powerpc64-ps3-elf/4.5.2/../../../../powerpc64-ps3-elf/lib/libc.a(lib_a-puts.o)
                0x00000000000325d0                _puts_r
                0x00000000000325e8                puts
 .opd           0x0000000000032600       0x30 /usr/local/ps3dev/ppu/lib/gcc/powerpc64-ps3-elf/4.5.2/../../../../powerpc64-ps3-elf/lib/libc.a(lib_a-sscanf.o)
                0x0000000000032600                sscanf
                0x0000000000032618                _sscanf_r
 .opd           0x0000000000032630       0x78 /usr/local/ps3dev/ppu/lib/gcc/powerpc64-ps3-elf/4.5.2/../../../../powerpc64-ps3-elf/lib/libc.a(lib_a-stdio.o)
                0x0000000000032630                __sread
                0x0000000000032648                __seofread
                0x0000000000032660                __swrite
                0x0000000000032678                __sseek
                0x0000000000032690                __sclose
 .opd           0x00000000000326a8       0x18 /usr/local/ps3dev/ppu/lib/gcc/powerpc64-ps3-elf/4.5.2/../../../../powerpc64-ps3-elf/lib/libc.a(lib_a-strcasecmp.o)
                0x00000000000326a8                strcasecmp
 .opd           0x00000000000326c0       0x18 /usr/local/ps3dev/ppu/lib/gcc/powerpc64-ps3-elf/4.5.2/../../../../powerpc64-ps3-elf/lib/libc.a(lib_a-strlen.o)
                0x00000000000326c0                strlen
 .opd           0x00000000000326d8       0x18 /usr/local/ps3dev/ppu/lib/gcc/powerpc64-ps3-elf/4.5.2/../../../../powerpc64-ps3-elf/lib/libc.a(lib_a-strncpy.o)
                0x00000000000326d8                strncpy
 .opd           0x00000000000326f0       0x18 /usr/local/ps3dev/ppu/lib/gcc/powerpc64-ps3-elf/4.5.2/../../../../powerpc64-ps3-elf/lib/libc.a(lib_a-svfscanf.o)
                0x00000000000326f0                __ssvfscanf_r
 .opd           0x0000000000032708       0x18 /usr/local/ps3dev/ppu/lib/gcc/powerpc64-ps3-elf/4.5.2/../../../../powerpc64-ps3-elf/lib/libc.a(lib_a-__atexit.o)
                0x0000000000032708                __register_exitproc
 .opd           0x0000000000032720       0x18 /usr/local/ps3dev/ppu/lib/gcc/powerpc64-ps3-elf/4.5.2/../../../../powerpc64-ps3-elf/lib/libc.a(lib_a-__call_atexit.o)
                0x0000000000032720                __call_exitprocs
 .opd           0x0000000000032738      0x138 /usr/local/ps3dev/ppu/lib/gcc/powerpc64-ps3-elf/4.5.2/../../../../powerpc64-ps3-elf/lib/libc.a(lib_a-findfp.o)
                0x0000000000032738                _cleanup_r
                0x0000000000032780                __sfmoreglue
                0x0000000000032798                _cleanup
                0x00000000000327b0                __sfp_lock_acquire
                0x00000000000327c8                __sfp_lock_release
                0x00000000000327e0                __sinit_lock_acquire
                0x00000000000327f8                __sinit_lock_release
                0x0000000000032810                __sinit
                0x0000000000032828                __sfp
                0x0000000000032840                __fp_lock_all
                0x0000000000032858                __fp_unlock_all
 .opd           0x0000000000032870       0x30 /usr/local/ps3dev/ppu/lib/gcc/powerpc64-ps3-elf/4.5.2/../../../../powerpc64-ps3-elf/lib/libc.a(lib_a-freer.o)
                0x0000000000032870                _malloc_trim_r
                0x0000000000032888                _free_r
 .opd           0x00000000000328a0       0x18 /usr/local/ps3dev/ppu/lib/gcc/powerpc64-ps3-elf/4.5.2/../../../../powerpc64-ps3-elf/lib/libc.a(lib_a-fvwrite.o)
                0x00000000000328a0                __sfvwrite_r
 .opd           0x00000000000328b8       0x30 /usr/local/ps3dev/ppu/lib/gcc/powerpc64-ps3-elf/4.5.2/../../../../powerpc64-ps3-elf/lib/libc.a(lib_a-fwalk.o)
                0x00000000000328b8                _fwalk
                0x00000000000328d0                _fwalk_reent
 .opd           0x00000000000328e8       0x18 /usr/local/ps3dev/ppu/lib/gcc/powerpc64-ps3-elf/4.5.2/../../../../powerpc64-ps3-elf/lib/libc.a(lib_a-iswspace.o)
                0x00000000000328e8                iswspace
 .opd           0x0000000000032900       0xc0 /usr/local/ps3dev/ppu/lib/gcc/powerpc64-ps3-elf/4.5.2/../../../../powerpc64-ps3-elf/lib/libc.a(lib_a-locale.o)
                0x0000000000032900                _setlocale_r
                0x0000000000032918                __locale_charset
                0x0000000000032930                __locale_mb_cur_max
                0x0000000000032948                __locale_msgcharset
                0x0000000000032960                __locale_cjk_lang
                0x0000000000032978                _localeconv_r
                0x0000000000032990                setlocale
                0x00000000000329a8                localeconv
 .opd           0x00000000000329c0       0x78 /usr/local/ps3dev/ppu/lib/gcc/powerpc64-ps3-elf/4.5.2/../../../../powerpc64-ps3-elf/lib/libc.a(lib_a-lock_recursive.o)
                0x00000000000329c0                __libc_lock_init_recursive
                0x00000000000329d8                __libc_lock_close_recursive
                0x00000000000329f0                __libc_lock_acquire_recursive
                0x0000000000032a08                __libc_lock_try_acquire_recursive
                0x0000000000032a20                __libc_lock_release_recursive
 .opd           0x0000000000032a38       0x30 /usr/local/ps3dev/ppu/lib/gcc/powerpc64-ps3-elf/4.5.2/../../../../powerpc64-ps3-elf/lib/libc.a(lib_a-mbrtowc.o)
                0x0000000000032a38                _mbrtowc_r
                0x0000000000032a50                mbrtowc
 .opd           0x0000000000032a68       0x30 /usr/local/ps3dev/ppu/lib/gcc/powerpc64-ps3-elf/4.5.2/../../../../powerpc64-ps3-elf/lib/libc.a(lib_a-mbtowc_r.o)
                0x0000000000032a68                __ascii_mbtowc
                0x0000000000032a80                _mbtowc_r
 .opd           0x0000000000032a98       0x18 /usr/local/ps3dev/ppu/lib/gcc/powerpc64-ps3-elf/4.5.2/../../../../powerpc64-ps3-elf/lib/libc.a(lib_a-memchr.o)
                0x0000000000032a98                memchr
 .opd           0x0000000000032ab0       0x18 /usr/local/ps3dev/ppu/lib/gcc/powerpc64-ps3-elf/4.5.2/../../../../powerpc64-ps3-elf/lib/libc.a(lib_a-memcpy.o)
                0x0000000000032ab0                memcpy
 .opd           0x0000000000032ac8       0x18 /usr/local/ps3dev/ppu/lib/gcc/powerpc64-ps3-elf/4.5.2/../../../../powerpc64-ps3-elf/lib/libc.a(lib_a-memmove.o)
                0x0000000000032ac8                memmove
 .opd           0x0000000000032ae0       0x18 /usr/local/ps3dev/ppu/lib/gcc/powerpc64-ps3-elf/4.5.2/../../../../powerpc64-ps3-elf/lib/libc.a(lib_a-reallocr.o)
                0x0000000000032ae0                _realloc_r
 .opd           0x0000000000032af8       0x18 /usr/local/ps3dev/ppu/lib/gcc/powerpc64-ps3-elf/4.5.2/../../../../powerpc64-ps3-elf/lib/libc.a(lib_a-sccl.o)
                0x0000000000032af8                __sccl
 .opd           0x0000000000032b10       0x18 /usr/local/ps3dev/ppu/lib/gcc/powerpc64-ps3-elf/4.5.2/../../../../powerpc64-ps3-elf/lib/libc.a(lib_a-sf_nan.o)
                0x0000000000032b10                nanf
 .opd           0x0000000000032b28       0x18 /usr/local/ps3dev/ppu/lib/gcc/powerpc64-ps3-elf/4.5.2/../../../../powerpc64-ps3-elf/lib/libc.a(lib_a-s_fpclassify.o)
                0x0000000000032b28                __fpclassifyd
 .opd           0x0000000000032b40       0x30 /usr/local/ps3dev/ppu/lib/gcc/powerpc64-ps3-elf/4.5.2/../../../../powerpc64-ps3-elf/lib/libc.a(lib_a-sprintf.o)
                0x0000000000032b40                _sprintf_r
                0x0000000000032b58                sprintf
 .opd           0x0000000000032b70       0x18 /usr/local/ps3dev/ppu/lib/gcc/powerpc64-ps3-elf/4.5.2/../../../../powerpc64-ps3-elf/lib/libc.a(lib_a-strcmp.o)
                0x0000000000032b70                strcmp
 .opd           0x0000000000032b88       0x60 /usr/local/ps3dev/ppu/lib/gcc/powerpc64-ps3-elf/4.5.2/../../../../powerpc64-ps3-elf/lib/libc.a(lib_a-strtod.o)
                0x0000000000032ba0                _strtod_r
                0x0000000000032bb8                strtod
                0x0000000000032bd0                strtof
 .opd           0x0000000000032be8       0x18 /usr/local/ps3dev/ppu/lib/gcc/powerpc64-ps3-elf/4.5.2/../../../../powerpc64-ps3-elf/lib/libc.a(lib_a-strtoll_r.o)
                0x0000000000032be8                _strtoll_r
 .opd           0x0000000000032c00       0x30 /usr/local/ps3dev/ppu/lib/gcc/powerpc64-ps3-elf/4.5.2/../../../../powerpc64-ps3-elf/lib/libc.a(lib_a-strtol.o)
                0x0000000000032c00                _strtol_r
                0x0000000000032c18                strtol
 .opd           0x0000000000032c30       0x18 /usr/local/ps3dev/ppu/lib/gcc/powerpc64-ps3-elf/4.5.2/../../../../powerpc64-ps3-elf/lib/libc.a(lib_a-strtoull_r.o)
                0x0000000000032c30                _strtoull_r
 .opd           0x0000000000032c48       0x30 /usr/local/ps3dev/ppu/lib/gcc/powerpc64-ps3-elf/4.5.2/../../../../powerpc64-ps3-elf/lib/libc.a(lib_a-strtoul.o)
                0x0000000000032c48                _strtoul_r
                0x0000000000032c60                strtoul
 .opd           0x0000000000032c78       0x60 /usr/local/ps3dev/ppu/lib/gcc/powerpc64-ps3-elf/4.5.2/../../../../powerpc64-ps3-elf/lib/libc.a(lib_a-svfiscanf.o)
                0x0000000000032c78                _sungetc_r
                0x0000000000032c90                __ssrefill_r
                0x0000000000032ca8                _sfread_r
                0x0000000000032cc0                __ssvfiscanf_r
 .opd           0x0000000000032cd8       0x18 /usr/local/ps3dev/ppu/lib/gcc/powerpc64-ps3-elf/4.5.2/../../../../powerpc64-ps3-elf/lib/libc.a(lib_a-svfprintf.o)
                0x0000000000032cd8                _svfprintf_r
 .opd           0x0000000000032cf0       0x48 /usr/local/ps3dev/ppu/lib/gcc/powerpc64-ps3-elf/4.5.2/../../../../powerpc64-ps3-elf/lib/libc.a(lib_a-ungetc.o)
                0x0000000000032cf0                __submore
                0x0000000000032d08                _ungetc_r
                0x0000000000032d20                ungetc
 .opd           0x0000000000032d38       0x18 /usr/local/ps3dev/ppu/lib/gcc/powerpc64-ps3-elf/4.5.2/../../../../powerpc64-ps3-elf/lib/libc.a(lib_a-wsetup.o)
                0x0000000000032d38                __swsetup_r
 .opd           0x0000000000032d50       0x30 /usr/local/ps3dev/ppu/lib/gcc/powerpc64-ps3-elf/4.5.2/../../../../powerpc64-ps3-elf/lib/libc.a(lib_a-dtoa.o)
                0x0000000000032d68                _dtoa_r
 .opd           0x0000000000032d80       0x30 /usr/local/ps3dev/ppu/lib/gcc/powerpc64-ps3-elf/4.5.2/../../../../powerpc64-ps3-elf/lib/libc.a(lib_a-fclose.o)
                0x0000000000032d80                _fclose_r
                0x0000000000032d98                fclose
 .opd           0x0000000000032db0       0x30 /usr/local/ps3dev/ppu/lib/gcc/powerpc64-ps3-elf/4.5.2/../../../../powerpc64-ps3-elf/lib/libc.a(lib_a-fflush.o)
                0x0000000000032db0                _fflush_r
                0x0000000000032dc8                fflush
 .opd           0x0000000000032de0       0x48 /usr/local/ps3dev/ppu/lib/gcc/powerpc64-ps3-elf/4.5.2/../../../../powerpc64-ps3-elf/lib/libc.a(lib_a-gdtoa-gethex.o)
                0x0000000000032df8                __hexdig_init
                0x0000000000032e10                __gethex
 .opd           0x0000000000032e28       0x18 /usr/local/ps3dev/ppu/lib/gcc/powerpc64-ps3-elf/4.5.2/../../../../powerpc64-ps3-elf/lib/libc.a(lib_a-gdtoa-hexnan.o)
                0x0000000000032e28                __hexnan
 .opd           0x0000000000032e40       0x30 /usr/local/ps3dev/ppu/lib/gcc/powerpc64-ps3-elf/4.5.2/../../../../powerpc64-ps3-elf/lib/libc.a(lib_a-lock_internal.o)
                0x0000000000032e58                __libc_auto_lock_allocate
 .opd           0x0000000000032e70       0x18 /usr/local/ps3dev/ppu/lib/gcc/powerpc64-ps3-elf/4.5.2/../../../../powerpc64-ps3-elf/lib/libc.a(lib_a-makebuf.o)
                0x0000000000032e70                __smakebuf_r
 .opd           0x0000000000032e88      0x1c8 /usr/local/ps3dev/ppu/lib/gcc/powerpc64-ps3-elf/4.5.2/../../../../powerpc64-ps3-elf/lib/libc.a(lib_a-mprec.o)
                0x0000000000032e88                _Balloc
                0x0000000000032ea0                _Bfree
                0x0000000000032eb8                __multadd
                0x0000000000032ed0                __s2b
                0x0000000000032ee8                __hi0bits
                0x0000000000032f00                __lo0bits
                0x0000000000032f18                __i2b
                0x0000000000032f30                __multiply
                0x0000000000032f48                __pow5mult
                0x0000000000032f60                __lshift
                0x0000000000032f78                __mcmp
                0x0000000000032f90                __mdiff
                0x0000000000032fa8                __ulp
                0x0000000000032fc0                __b2d
                0x0000000000032fd8                __d2b
                0x0000000000032ff0                __ratio
                0x0000000000033008                _mprec_log10
                0x0000000000033020                __copybits
                0x0000000000033038                __any_on
 .opd           0x0000000000033050       0x18 /usr/local/ps3dev/ppu/lib/gcc/powerpc64-ps3-elf/4.5.2/../../../../powerpc64-ps3-elf/lib/libc.a(lib_a-strncmp.o)
                0x0000000000033050                strncmp
 .opd           0x0000000000033068       0x30 /usr/local/ps3dev/ppu/lib/gcc/powerpc64-ps3-elf/4.5.2/../../../../powerpc64-ps3-elf/lib/libc.a(lib_a-svfiprintf.o)
                0x0000000000033068                __ssprint_r
                0x0000000000033080                _svfiprintf_r
 .opd           0x0000000000033098       0x18 /usr/local/ps3dev/ppu/lib/gcc/powerpc64-ps3-elf/4.5.2/../../../../powerpc64-ps3-elf/lib/libc.a(lib_a-abort.o)
                0x0000000000033098                abort
 .opd           0x00000000000330b0       0x18 /usr/local/ps3dev/ppu/lib/gcc/powerpc64-ps3-elf/4.5.2/../../../../powerpc64-ps3-elf/lib/libc.a(lib_a-callocr.o)
                0x00000000000330b0                _calloc_r
 .opd           0x00000000000330c8       0xc0 /usr/local/ps3dev/ppu/lib/gcc/powerpc64-ps3-elf/4.5.2/../../../../powerpc64-ps3-elf/lib/libc.a(lib_a-signal.o)
                0x00000000000330c8                _init_signal_r
                0x00000000000330e0                _signal_r
                0x00000000000330f8                _raise_r
                0x0000000000033110                __sigtramp_r
                0x0000000000033128                raise
                0x0000000000033140                signal
                0x0000000000033158                _init_signal
                0x0000000000033170                __sigtramp
 .opd           0x0000000000033188       0x18 /usr/local/ps3dev/ppu/lib/gcc/powerpc64-ps3-elf/4.5.2/../../../../powerpc64-ps3-elf/lib/libsysbase.a(close.o)
                0x0000000000033188                _close_r
 .opd           0x00000000000331a0       0x18 /usr/local/ps3dev/ppu/lib/gcc/powerpc64-ps3-elf/4.5.2/../../../../powerpc64-ps3-elf/lib/libsysbase.a(sbrk.o)
                0x00000000000331a0                _sbrk_r
 .opd           0x00000000000331b8       0x18 /usr/local/ps3dev/ppu/lib/gcc/powerpc64-ps3-elf/4.5.2/../../../../powerpc64-ps3-elf/lib/libsysbase.a(_exit.o)
                0x00000000000331b8                _exit
 .opd           0x00000000000331d0       0x18 /usr/local/ps3dev/ppu/lib/gcc/powerpc64-ps3-elf/4.5.2/../../../../powerpc64-ps3-elf/lib/libsysbase.a(fstat.o)
                0x00000000000331d0                _fstat_r
 .opd           0x00000000000331e8       0x18 /usr/local/ps3dev/ppu/lib/gcc/powerpc64-ps3-elf/4.5.2/../../../../powerpc64-ps3-elf/lib/libsysbase.a(isatty.o)
                0x00000000000331e8                _isatty_r
 .opd           0x0000000000033200       0x18 /usr/local/ps3dev/ppu/lib/gcc/powerpc64-ps3-elf/4.5.2/../../../../powerpc64-ps3-elf/lib/libsysbase.a(lseek.o)
                0x0000000000033200                _lseek_r
 .opd           0x0000000000033218       0x18 /usr/local/ps3dev/ppu/lib/gcc/powerpc64-ps3-elf/4.5.2/../../../../powerpc64-ps3-elf/lib/libsysbase.a(read.o)
                0x0000000000033218                _read_r
 .opd           0x0000000000033230       0x18 /usr/local/ps3dev/ppu/lib/gcc/powerpc64-ps3-elf/4.5.2/../../../../powerpc64-ps3-elf/lib/libsysbase.a(write.o)
                0x0000000000033230                _write_r
 .opd           0x0000000000033248       0x78 /usr/local/ps3dev/ppu/lib/gcc/powerpc64-ps3-elf/4.5.2/../../../../powerpc64-ps3-elf/lib/libsysbase.a(lock.o)
                0x0000000000033248                sys_lwmutex_create
                0x0000000000033260                sys_lwmutex_destroy
                0x0000000000033278                sys_lwmutex_lock
                0x0000000000033290                sys_lwmutex_trylock
                0x00000000000332a8                sys_lwmutex_unlock
 .opd           0x00000000000332c0       0x18 /usr/local/ps3dev/ppu/lib/gcc/powerpc64-ps3-elf/4.5.2/../../../../powerpc64-ps3-elf/lib/libsysbase.a(getpid.o)
                0x00000000000332c0                _getpid_r
 .opd           0x00000000000332d8       0x18 /usr/local/ps3dev/ppu/lib/gcc/powerpc64-ps3-elf/4.5.2/../../../../powerpc64-ps3-elf/lib/libsysbase.a(kill.o)
                0x00000000000332d8                _kill_r
 .opd           0x00000000000332f0       0x18 /usr/local/ps3dev/ppu/lib/gcc/powerpc64-ps3-elf/4.5.2/crtend.o

.branch_lt      0x0000000000033308        0x0
 *(.branch_lt)
 .branch_lt     0x0000000000033308        0x0 linker stubs

.got            0x0000000000033308      0x740
 *(.got .toc)
 .toc           0x0000000000033308       0x50 /usr/local/ps3dev/ppu/lib/gcc/powerpc64-ps3-elf/4.5.2/crtbegin.o
 .toc           0x0000000000033358        0x8 /usr/local/ps3dev/ppu/lib/gcc/powerpc64-ps3-elf/4.5.2/crtend.o
 .toc           0x0000000000033360      0x118 /usr/local/ps3dev/ppu/lib/gcc/powerpc64-ps3-elf/4.5.2/../../../../powerpc64-ps3-elf/lib/lv2-crt0.o
 .toc           0x0000000000033478       0x60 main.o
 .toc           0x00000000000334d8       0x68 rsxutil.o
 .toc           0x0000000000033540        0x8 /usr/local/ps3dev/libpsl1ght/ppu/lib/librsx.a(commands.o)
 .toc           0x0000000000033548       0x18 /usr/local/ps3dev/libpsl1ght/ppu/lib/librsx.a(mm.o)
 .toc           0x0000000000033560       0x28 /usr/local/ps3dev/libpsl1ght/ppu/lib/librt.a(sbrk.o)
 .toc           0x0000000000033588        0x8 /usr/local/ps3dev/libpsl1ght/ppu/lib/librt.a(open.o)
 .toc           0x0000000000033590        0x8 /usr/local/ps3dev/libpsl1ght/ppu/lib/librt.a(socket.o)
 .toc           0x0000000000033598        0x8 /usr/local/ps3dev/libpsl1ght/ppu/lib/librt.a(mkdir.o)
 .toc           0x00000000000335a0        0x8 /usr/local/ps3dev/libpsl1ght/ppu/lib/librt.a(umask.o)
 .toc           0x00000000000335a8        0x8 /usr/local/ps3dev/ppu/lib/gcc/powerpc64-ps3-elf/4.5.2/../../../../powerpc64-ps3-elf/lib/libsysbase.a(sleep.o)
 .toc           0x00000000000335b0        0x8 /usr/local/ps3dev/ppu/lib/gcc/powerpc64-ps3-elf/4.5.2/../../../../powerpc64-ps3-elf/lib/libc.a(lib_a-exit.o)
 .toc           0x00000000000335b8        0x8 /usr/local/ps3dev/ppu/lib/gcc/powerpc64-ps3-elf/4.5.2/../../../../powerpc64-ps3-elf/lib/libc.a(lib_a-getreent.o)
 .toc           0x00000000000335c0       0x30 /usr/local/ps3dev/ppu/lib/gcc/powerpc64-ps3-elf/4.5.2/../../../../powerpc64-ps3-elf/lib/libc.a(lib_a-mallocr.o)
 .toc           0x00000000000335f0        0x8 /usr/local/ps3dev/ppu/lib/gcc/powerpc64-ps3-elf/4.5.2/../../../../powerpc64-ps3-elf/lib/libc.a(lib_a-mlock.o)
 .toc           0x00000000000335f8        0x8 /usr/local/ps3dev/ppu/lib/gcc/powerpc64-ps3-elf/4.5.2/../../../../powerpc64-ps3-elf/lib/libc.a(lib_a-puts.o)
 .toc           0x0000000000033600        0x8 /usr/local/ps3dev/ppu/lib/gcc/powerpc64-ps3-elf/4.5.2/../../../../powerpc64-ps3-elf/lib/libc.a(lib_a-sscanf.o)
 .toc           0x0000000000033608        0x8 /usr/local/ps3dev/ppu/lib/gcc/powerpc64-ps3-elf/4.5.2/../../../../powerpc64-ps3-elf/lib/libc.a(lib_a-strcasecmp.o)
 .toc           0x0000000000033610       0x40 /usr/local/ps3dev/ppu/lib/gcc/powerpc64-ps3-elf/4.5.2/../../../../powerpc64-ps3-elf/lib/libc.a(lib_a-svfscanf.o)
 .toc           0x0000000000033650       0x18 /usr/local/ps3dev/ppu/lib/gcc/powerpc64-ps3-elf/4.5.2/../../../../powerpc64-ps3-elf/lib/libc.a(lib_a-__atexit.o)
 .toc           0x0000000000033668       0x18 /usr/local/ps3dev/ppu/lib/gcc/powerpc64-ps3-elf/4.5.2/../../../../powerpc64-ps3-elf/lib/libc.a(lib_a-__call_atexit.o)
 .toc           0x0000000000033680       0x58 /usr/local/ps3dev/ppu/lib/gcc/powerpc64-ps3-elf/4.5.2/../../../../powerpc64-ps3-elf/lib/libc.a(lib_a-findfp.o)
 .toc           0x00000000000336d8       0x28 /usr/local/ps3dev/ppu/lib/gcc/powerpc64-ps3-elf/4.5.2/../../../../powerpc64-ps3-elf/lib/libc.a(lib_a-freer.o)
 .toc           0x0000000000033700        0x8 /usr/local/ps3dev/ppu/lib/gcc/powerpc64-ps3-elf/4.5.2/../../../../powerpc64-ps3-elf/lib/libc.a(lib_a-iswspace.o)
 .toc           0x0000000000033708       0x38 /usr/local/ps3dev/ppu/lib/gcc/powerpc64-ps3-elf/4.5.2/../../../../powerpc64-ps3-elf/lib/libc.a(lib_a-locale.o)
 .toc           0x0000000000033740        0x8 /usr/local/ps3dev/ppu/lib/gcc/powerpc64-ps3-elf/4.5.2/../../../../powerpc64-ps3-elf/lib/libc.a(lib_a-lock_recursive.o)
 .toc           0x0000000000033748       0x10 /usr/local/ps3dev/ppu/lib/gcc/powerpc64-ps3-elf/4.5.2/../../../../powerpc64-ps3-elf/lib/libc.a(lib_a-mbrtowc.o)
 .toc           0x0000000000033758        0x8 /usr/local/ps3dev/ppu/lib/gcc/powerpc64-ps3-elf/4.5.2/../../../../powerpc64-ps3-elf/lib/libc.a(lib_a-mbtowc_r.o)
 .toc           0x0000000000033760        0x8 /usr/local/ps3dev/ppu/lib/gcc/powerpc64-ps3-elf/4.5.2/../../../../powerpc64-ps3-elf/lib/libc.a(lib_a-reallocr.o)
 .toc           0x0000000000033768        0x8 /usr/local/ps3dev/ppu/lib/gcc/powerpc64-ps3-elf/4.5.2/../../../../powerpc64-ps3-elf/lib/libc.a(lib_a-sf_nan.o)
 .toc           0x0000000000033770       0xb0 /usr/local/ps3dev/ppu/lib/gcc/powerpc64-ps3-elf/4.5.2/../../../../powerpc64-ps3-elf/lib/libc.a(lib_a-strtod.o)
 .toc           0x0000000000033820        0x8 /usr/local/ps3dev/ppu/lib/gcc/powerpc64-ps3-elf/4.5.2/../../../../powerpc64-ps3-elf/lib/libc.a(lib_a-strtoll_r.o)
 .toc           0x0000000000033828        0x8 /usr/local/ps3dev/ppu/lib/gcc/powerpc64-ps3-elf/4.5.2/../../../../powerpc64-ps3-elf/lib/libc.a(lib_a-strtol.o)
 .toc           0x0000000000033830        0x8 /usr/local/ps3dev/ppu/lib/gcc/powerpc64-ps3-elf/4.5.2/../../../../powerpc64-ps3-elf/lib/libc.a(lib_a-strtoull_r.o)
 .toc           0x0000000000033838        0x8 /usr/local/ps3dev/ppu/lib/gcc/powerpc64-ps3-elf/4.5.2/../../../../powerpc64-ps3-elf/lib/libc.a(lib_a-strtoul.o)
 .toc           0x0000000000033840       0x30 /usr/local/ps3dev/ppu/lib/gcc/powerpc64-ps3-elf/4.5.2/../../../../powerpc64-ps3-elf/lib/libc.a(lib_a-svfiscanf.o)
 .toc           0x0000000000033870       0x60 /usr/local/ps3dev/ppu/lib/gcc/powerpc64-ps3-elf/4.5.2/../../../../powerpc64-ps3-elf/lib/libc.a(lib_a-svfprintf.o)
 .toc           0x00000000000338d0       0x80 /usr/local/ps3dev/ppu/lib/gcc/powerpc64-ps3-elf/4.5.2/../../../../powerpc64-ps3-elf/lib/libc.a(lib_a-dtoa.o)
 .toc           0x0000000000033950       0x10 /usr/local/ps3dev/ppu/lib/gcc/powerpc64-ps3-elf/4.5.2/../../../../powerpc64-ps3-elf/lib/libc.a(lib_a-fflush.o)
 .toc           0x0000000000033960       0x20 /usr/local/ps3dev/ppu/lib/gcc/powerpc64-ps3-elf/4.5.2/../../../../powerpc64-ps3-elf/lib/libc.a(lib_a-gdtoa-gethex.o)
 .toc           0x0000000000033980        0x8 /usr/local/ps3dev/ppu/lib/gcc/powerpc64-ps3-elf/4.5.2/../../../../powerpc64-ps3-elf/lib/libc.a(lib_a-gdtoa-hexnan.o)
 .toc           0x0000000000033988       0x10 /usr/local/ps3dev/ppu/lib/gcc/powerpc64-ps3-elf/4.5.2/../../../../powerpc64-ps3-elf/lib/libc.a(lib_a-lock_internal.o)
 .toc           0x0000000000033998       0x10 /usr/local/ps3dev/ppu/lib/gcc/powerpc64-ps3-elf/4.5.2/../../../../powerpc64-ps3-elf/lib/libc.a(lib_a-makebuf.o)
 .toc           0x00000000000339a8       0x20 /usr/local/ps3dev/ppu/lib/gcc/powerpc64-ps3-elf/4.5.2/../../../../powerpc64-ps3-elf/lib/libc.a(lib_a-mprec.o)
 .toc           0x00000000000339c8       0x30 /usr/local/ps3dev/ppu/lib/gcc/powerpc64-ps3-elf/4.5.2/../../../../powerpc64-ps3-elf/lib/libc.a(lib_a-svfiprintf.o)
 .toc           0x00000000000339f8        0x8 /usr/local/ps3dev/ppu/lib/gcc/powerpc64-ps3-elf/4.5.2/../../../../powerpc64-ps3-elf/lib/libsysbase.a(close.o)
 .toc           0x0000000000033a00        0x8 /usr/local/ps3dev/ppu/lib/gcc/powerpc64-ps3-elf/4.5.2/../../../../powerpc64-ps3-elf/lib/libsysbase.a(sbrk.o)
 .toc           0x0000000000033a08        0x8 /usr/local/ps3dev/ppu/lib/gcc/powerpc64-ps3-elf/4.5.2/../../../../powerpc64-ps3-elf/lib/libsysbase.a(_exit.o)
 .toc           0x0000000000033a10        0x8 /usr/local/ps3dev/ppu/lib/gcc/powerpc64-ps3-elf/4.5.2/../../../../powerpc64-ps3-elf/lib/libsysbase.a(fstat.o)
 .toc           0x0000000000033a18        0x8 /usr/local/ps3dev/ppu/lib/gcc/powerpc64-ps3-elf/4.5.2/../../../../powerpc64-ps3-elf/lib/libsysbase.a(isatty.o)
 .toc           0x0000000000033a20        0x8 /usr/local/ps3dev/ppu/lib/gcc/powerpc64-ps3-elf/4.5.2/../../../../powerpc64-ps3-elf/lib/libsysbase.a(lseek.o)
 .toc           0x0000000000033a28        0x8 /usr/local/ps3dev/ppu/lib/gcc/powerpc64-ps3-elf/4.5.2/../../../../powerpc64-ps3-elf/lib/libsysbase.a(read.o)
 .toc           0x0000000000033a30        0x8 /usr/local/ps3dev/ppu/lib/gcc/powerpc64-ps3-elf/4.5.2/../../../../powerpc64-ps3-elf/lib/libsysbase.a(write.o)
 .toc           0x0000000000033a38        0x8 /usr/local/ps3dev/ppu/lib/gcc/powerpc64-ps3-elf/4.5.2/../../../../powerpc64-ps3-elf/lib/libsysbase.a(lock.o)
 .toc           0x0000000000033a40        0x8 /usr/local/ps3dev/ppu/lib/gcc/powerpc64-ps3-elf/4.5.2/../../../../powerpc64-ps3-elf/lib/libsysbase.a(getpid.o)
 .toc           0x0000000000033a48        0x0 /usr/local/ps3dev/libpsl1ght/ppu/lib/librsx.a(init.o)
 .toc           0x0000000000033a48        0x0 /usr/local/ps3dev/libpsl1ght/ppu/lib/librsx.a(buffer.o)
 .toc           0x0000000000033a48        0x0 /usr/local/ps3dev/libpsl1ght/ppu/lib/librsx.a(vertex_program.o)
 .toc           0x0000000000033a48        0x0 /usr/local/ps3dev/libpsl1ght/ppu/lib/librsx.a(fragment_program.o)
 .got           0x0000000000033a48        0x0 /usr/local/ps3dev/libpsl1ght/ppu/lib/libgcm_sys.a(sprx.o)
 .got           0x0000000000033a48        0x0 /usr/local/ps3dev/libpsl1ght/ppu/lib/libio.a(sprx.o)
 .got           0x0000000000033a48        0x0 /usr/local/ps3dev/libpsl1ght/ppu/lib/libsysutil.a(sprx.o)
 .toc           0x0000000000033a48        0x0 /usr/local/ps3dev/libpsl1ght/ppu/lib/libsysutil.a(sysutil_wrapper.o)
 .toc           0x0000000000033a48        0x0 /usr/local/ps3dev/libpsl1ght/ppu/lib/librt.a(exit.o)
 .toc           0x0000000000033a48        0x0 /usr/local/ps3dev/libpsl1ght/ppu/lib/librt.a(close.o)
 .toc           0x0000000000033a48        0x0 /usr/local/ps3dev/libpsl1ght/ppu/lib/librt.a(lseek.o)
 .toc           0x0000000000033a48        0x0 /usr/local/ps3dev/libpsl1ght/ppu/lib/librt.a(read.o)
 .toc           0x0000000000033a48        0x0 /usr/local/ps3dev/libpsl1ght/ppu/lib/librt.a(sleep.o)
 .toc           0x0000000000033a48        0x0 /usr/local/ps3dev/libpsl1ght/ppu/lib/librt.a(write.o)
 .toc           0x0000000000033a48        0x0 /usr/local/ps3dev/libpsl1ght/ppu/lib/librt.a(fstat.o)
 .toc           0x0000000000033a48        0x0 /usr/local/ps3dev/libpsl1ght/ppu/lib/librt.a(lock.o)
 .toc           0x0000000000033a48        0x0 /usr/local/ps3dev/libpsl1ght/ppu/lib/librt.a(dirent.o)
 .toc           0x0000000000033a48        0x0 /usr/local/ps3dev/libpsl1ght/ppu/lib/librt.a(times.o)
 .toc           0x0000000000033a48        0x0 /usr/local/ps3dev/libpsl1ght/ppu/lib/librt.a(lv2errno.o)
 .toc           0x0000000000033a48        0x0 /usr/local/ps3dev/libpsl1ght/ppu/lib/librt.a(heap.o)
 .toc           0x0000000000033a48        0x0 /usr/local/ps3dev/libpsl1ght/ppu/lib/librt.a(chmod.o)
 .toc           0x0000000000033a48        0x0 /usr/local/ps3dev/libpsl1ght/ppu/lib/librt.a(rmdir.o)
 .toc           0x0000000000033a48        0x0 /usr/local/ps3dev/libpsl1ght/ppu/lib/librt.a(isatty.o)
 .toc           0x0000000000033a48        0x0 /usr/local/ps3dev/libpsl1ght/ppu/lib/librt.a(gettod.o)
 .toc           0x0000000000033a48        0x0 /usr/local/ps3dev/libpsl1ght/ppu/lib/librt.a(settod.o)
 .got           0x0000000000033a48        0x0 /usr/local/ps3dev/libpsl1ght/ppu/lib/liblv2.a(sprx.o)
 .toc           0x0000000000033a48        0x0 /usr/local/ps3dev/ppu/lib/gcc/powerpc64-ps3-elf/4.5.2/../../../../powerpc64-ps3-elf/lib/libsysbase.a(syscalls.o)
 .toc           0x0000000000033a48        0x0 /usr/local/ps3dev/ppu/lib/gcc/powerpc64-ps3-elf/4.5.2/../../../../powerpc64-ps3-elf/lib/libc.a(lib_a-atexit.o)
 .toc           0x0000000000033a48        0x0 /usr/local/ps3dev/ppu/lib/gcc/powerpc64-ps3-elf/4.5.2/../../../../powerpc64-ps3-elf/lib/libc.a(lib_a-errno.o)
 .toc           0x0000000000033a48        0x0 /usr/local/ps3dev/ppu/lib/gcc/powerpc64-ps3-elf/4.5.2/../../../../powerpc64-ps3-elf/lib/libc.a(lib_a-impure.o)
 .toc           0x0000000000033a48        0x0 /usr/local/ps3dev/ppu/lib/gcc/powerpc64-ps3-elf/4.5.2/../../../../powerpc64-ps3-elf/lib/libc.a(lib_a-malign.o)
 .toc           0x0000000000033a48        0x0 /usr/local/ps3dev/ppu/lib/gcc/powerpc64-ps3-elf/4.5.2/../../../../powerpc64-ps3-elf/lib/libc.a(lib_a-malignr.o)
 .toc           0x0000000000033a48        0x0 /usr/local/ps3dev/ppu/lib/gcc/powerpc64-ps3-elf/4.5.2/../../../../powerpc64-ps3-elf/lib/libc.a(lib_a-malloc.o)
 .toc           0x0000000000033a48        0x0 /usr/local/ps3dev/ppu/lib/gcc/powerpc64-ps3-elf/4.5.2/../../../../powerpc64-ps3-elf/lib/libc.a(lib_a-memset.o)
 .toc           0x0000000000033a48        0x0 /usr/local/ps3dev/ppu/lib/gcc/powerpc64-ps3-elf/4.5.2/../../../../powerpc64-ps3-elf/lib/libc.a(lib_a-stdio.o)
 .toc           0x0000000000033a48        0x0 /usr/local/ps3dev/ppu/lib/gcc/powerpc64-ps3-elf/4.5.2/../../../../powerpc64-ps3-elf/lib/libc.a(lib_a-strlen.o)
 .toc           0x0000000000033a48        0x0 /usr/local/ps3dev/ppu/lib/gcc/powerpc64-ps3-elf/4.5.2/../../../../powerpc64-ps3-elf/lib/libc.a(lib_a-strncpy.o)
 .toc           0x0000000000033a48        0x0 /usr/local/ps3dev/ppu/lib/gcc/powerpc64-ps3-elf/4.5.2/../../../../powerpc64-ps3-elf/lib/libc.a(lib_a-ctype_.o)
 .toc           0x0000000000033a48        0x0 /usr/local/ps3dev/ppu/lib/gcc/powerpc64-ps3-elf/4.5.2/../../../../powerpc64-ps3-elf/lib/libc.a(lib_a-fvwrite.o)
 .toc           0x0000000000033a48        0x0 /usr/local/ps3dev/ppu/lib/gcc/powerpc64-ps3-elf/4.5.2/../../../../powerpc64-ps3-elf/lib/libc.a(lib_a-fwalk.o)
 .toc           0x0000000000033a48        0x0 /usr/local/ps3dev/ppu/lib/gcc/powerpc64-ps3-elf/4.5.2/../../../../powerpc64-ps3-elf/lib/libc.a(lib_a-memchr.o)
 .toc           0x0000000000033a48        0x0 /usr/local/ps3dev/ppu/lib/gcc/powerpc64-ps3-elf/4.5.2/../../../../powerpc64-ps3-elf/lib/libc.a(lib_a-memcpy.o)
 .toc           0x0000000000033a48        0x0 /usr/local/ps3dev/ppu/lib/gcc/powerpc64-ps3-elf/4.5.2/../../../../powerpc64-ps3-elf/lib/libc.a(lib_a-memmove.o)
 .toc           0x0000000000033a48        0x0 /usr/local/ps3dev/ppu/lib/gcc/powerpc64-ps3-elf/4.5.2/../../../../powerpc64-ps3-elf/lib/libc.a(lib_a-sccl.o)
 .toc           0x0000000000033a48        0x0 /usr/local/ps3dev/ppu/lib/gcc/powerpc64-ps3-elf/4.5.2/../../../../powerpc64-ps3-elf/lib/libc.a(lib_a-s_fpclassify.o)
 .toc           0x0000000000033a48        0x0 /usr/local/ps3dev/ppu/lib/gcc/powerpc64-ps3-elf/4.5.2/../../../../powerpc64-ps3-elf/lib/libc.a(lib_a-sprintf.o)
 .toc           0x0000000000033a48        0x0 /usr/local/ps3dev/ppu/lib/gcc/powerpc64-ps3-elf/4.5.2/../../../../powerpc64-ps3-elf/lib/libc.a(lib_a-strcmp.o)
 .toc           0x0000000000033a48        0x0 /usr/local/ps3dev/ppu/lib/gcc/powerpc64-ps3-elf/4.5.2/../../../../powerpc64-ps3-elf/lib/libc.a(lib_a-ungetc.o)
 .toc           0x0000000000033a48        0x0 /usr/local/ps3dev/ppu/lib/gcc/powerpc64-ps3-elf/4.5.2/../../../../powerpc64-ps3-elf/lib/libc.a(lib_a-wsetup.o)
 .toc           0x0000000000033a48        0x0 /usr/local/ps3dev/ppu/lib/gcc/powerpc64-ps3-elf/4.5.2/../../../../powerpc64-ps3-elf/lib/libc.a(lib_a-fclose.o)
 .toc           0x0000000000033a48        0x0 /usr/local/ps3dev/ppu/lib/gcc/powerpc64-ps3-elf/4.5.2/../../../../powerpc64-ps3-elf/lib/libc.a(lib_a-strncmp.o)
 .toc           0x0000000000033a48        0x0 /usr/local/ps3dev/ppu/lib/gcc/powerpc64-ps3-elf/4.5.2/../../../../powerpc64-ps3-elf/lib/libc.a(lib_a-abort.o)
 .toc           0x0000000000033a48        0x0 /usr/local/ps3dev/ppu/lib/gcc/powerpc64-ps3-elf/4.5.2/../../../../powerpc64-ps3-elf/lib/libc.a(lib_a-callocr.o)
 .toc           0x0000000000033a48        0x0 /usr/local/ps3dev/ppu/lib/gcc/powerpc64-ps3-elf/4.5.2/../../../../powerpc64-ps3-elf/lib/libc.a(lib_a-signal.o)
 .toc           0x0000000000033a48        0x0 /usr/local/ps3dev/ppu/lib/gcc/powerpc64-ps3-elf/4.5.2/../../../../powerpc64-ps3-elf/lib/libsysbase.a(kill.o)

.toc.sceStub
 *(.toc.sceStub)
 *(SORT(.toc.sceStub.*))

.tdata
 *(.tdata .tdata.* .gnu.linkonce.td.*)

.tbss           0x0000000000033a48      0x780
 *(.tbss .tbss.* .gnu.linkonce.tb.*)
 .tbss.t_reent  0x0000000000033a48      0x778 /usr/local/ps3dev/ppu/lib/gcc/powerpc64-ps3-elf/4.5.2/../../../../powerpc64-ps3-elf/lib/libc.a(lib_a-getreent.o)
 .tbss.t_reentp
                0x00000000000341c0        0x8 /usr/local/ps3dev/ppu/lib/gcc/powerpc64-ps3-elf/4.5.2/../../../../powerpc64-ps3-elf/lib/libc.a(lib_a-getreent.o)
 *(.tcommon)
                0x0000000010000000                . = ALIGN (0x10000000)

.rodata         0x0000000010000000      0x4e8
 *(.rodata .rodata.* .gnu.linkonce.r.*)
 .rodata        0x0000000010000000       0x18 /usr/local/ps3dev/ppu/lib/gcc/powerpc64-ps3-elf/4.5.2/../../../../powerpc64-ps3-elf/lib/lv2-crt0.o
                0x0000000010000000                _start
 .rodata.cst4   0x0000000010000018        0x4 main.o
 *fill*         0x000000001000001c        0x4 00
 .rodata.str1.8
                0x0000000010000020       0x77 main.o
 *fill*         0x0000000010000097        0x1 00
 .rodata.str1.8
                0x0000000010000098        0xc /usr/local/ps3dev/libpsl1ght/ppu/lib/librt.a(socket.o)
 *fill*         0x00000000100000a4        0x4 00
 .rodata.str1.8
                0x00000000100000a8        0x2 /usr/local/ps3dev/ppu/lib/gcc/powerpc64-ps3-elf/4.5.2/../../../../powerpc64-ps3-elf/lib/libc.a(lib_a-getreent.o)
 .rodata.str1.8
                0x0000000000000000        0x2 /usr/local/ps3dev/ppu/lib/gcc/powerpc64-ps3-elf/4.5.2/../../../../powerpc64-ps3-elf/lib/libc.a(lib_a-impure.o)
 *fill*         0x00000000100000aa        0x6 00
 .rodata._global_impure_ptr
                0x00000000100000b0        0x8 /usr/local/ps3dev/ppu/lib/gcc/powerpc64-ps3-elf/4.5.2/../../../../powerpc64-ps3-elf/lib/libc.a(lib_a-impure.o)
                0x00000000100000b0                _global_impure_ptr
 .rodata.str1.8
                0x00000000100000b8        0x2 /usr/local/ps3dev/ppu/lib/gcc/powerpc64-ps3-elf/4.5.2/../../../../powerpc64-ps3-elf/lib/libc.a(lib_a-puts.o)
 .rodata.basefix.4341
                0x00000000100000ba       0x22 /usr/local/ps3dev/ppu/lib/gcc/powerpc64-ps3-elf/4.5.2/../../../../powerpc64-ps3-elf/lib/libc.a(lib_a-svfscanf.o)
 *fill*         0x00000000100000dc        0x4 00
 .rodata.str1.8
                0x00000000100000e0        0x5 /usr/local/ps3dev/ppu/lib/gcc/powerpc64-ps3-elf/4.5.2/../../../../powerpc64-ps3-elf/lib/libc.a(lib_a-svfscanf.o)
 *fill*         0x00000000100000e5        0x3 00
 .rodata._ctype_
                0x00000000100000e8      0x101 /usr/local/ps3dev/ppu/lib/gcc/powerpc64-ps3-elf/4.5.2/../../../../powerpc64-ps3-elf/lib/libc.a(lib_a-ctype_.o)
                0x00000000100000e8                _ctype_
 *fill*         0x00000000100001e9        0x7 00
 .rodata.str1.8
                0x00000000100001f0        0x6 /usr/local/ps3dev/ppu/lib/gcc/powerpc64-ps3-elf/4.5.2/../../../../powerpc64-ps3-elf/lib/libc.a(lib_a-locale.o)
                                         0x1a (size before relaxing)
 *fill*         0x00000000100001f6        0x2 00
 .rodata.__libc_lock_attributes
                0x00000000100001f8       0x10 /usr/local/ps3dev/ppu/lib/gcc/powerpc64-ps3-elf/4.5.2/../../../../powerpc64-ps3-elf/lib/libc.a(lib_a-lock_recursive.o)
 .rodata.str1.8
                0x0000000000000000        0x1 /usr/local/ps3dev/ppu/lib/gcc/powerpc64-ps3-elf/4.5.2/../../../../powerpc64-ps3-elf/lib/libc.a(lib_a-mbrtowc.o)
 .rodata.cst4   0x0000000010000208        0x4 /usr/local/ps3dev/ppu/lib/gcc/powerpc64-ps3-elf/4.5.2/../../../../powerpc64-ps3-elf/lib/libc.a(lib_a-sf_nan.o)
 .rodata.cst4   0x000000001000020c       0x14 /usr/local/ps3dev/ppu/lib/gcc/powerpc64-ps3-elf/4.5.2/../../../../powerpc64-ps3-elf/lib/libc.a(lib_a-strtod.o)
 .rodata.cst8   0x0000000010000220       0x28 /usr/local/ps3dev/ppu/lib/gcc/powerpc64-ps3-elf/4.5.2/../../../../powerpc64-ps3-elf/lib/libc.a(lib_a-strtod.o)
 .rodata.str1.8
                0x0000000010000248       0x13 /usr/local/ps3dev/ppu/lib/gcc/powerpc64-ps3-elf/4.5.2/../../../../powerpc64-ps3-elf/lib/libc.a(lib_a-strtod.o)
 *fill*         0x000000001000025b        0x5 00
 .rodata.tinytens
                0x0000000010000260       0x28 /usr/local/ps3dev/ppu/lib/gcc/powerpc64-ps3-elf/4.5.2/../../../../powerpc64-ps3-elf/lib/libc.a(lib_a-strtod.o)
 .rodata.basefix.3841
                0x0000000010000288       0x22 /usr/local/ps3dev/ppu/lib/gcc/powerpc64-ps3-elf/4.5.2/../../../../powerpc64-ps3-elf/lib/libc.a(lib_a-svfiscanf.o)
 *fill*         0x00000000100002aa        0x6 00
 .rodata.zeroes.4425
                0x00000000100002b0       0x10 /usr/local/ps3dev/ppu/lib/gcc/powerpc64-ps3-elf/4.5.2/../../../../powerpc64-ps3-elf/lib/libc.a(lib_a-svfprintf.o)
 .rodata.cst8   0x0000000000000000        0x8 /usr/local/ps3dev/ppu/lib/gcc/powerpc64-ps3-elf/4.5.2/../../../../powerpc64-ps3-elf/lib/libc.a(lib_a-svfprintf.o)
 .rodata.blanks.4424
                0x00000000100002c0       0x10 /usr/local/ps3dev/ppu/lib/gcc/powerpc64-ps3-elf/4.5.2/../../../../powerpc64-ps3-elf/lib/libc.a(lib_a-svfprintf.o)
 .rodata.str1.8
                0x00000000100002d0       0x5a /usr/local/ps3dev/ppu/lib/gcc/powerpc64-ps3-elf/4.5.2/../../../../powerpc64-ps3-elf/lib/libc.a(lib_a-svfprintf.o)
 *fill*         0x000000001000032a        0x2 00
 .rodata.cst4   0x000000001000032c       0x10 /usr/local/ps3dev/ppu/lib/gcc/powerpc64-ps3-elf/4.5.2/../../../../powerpc64-ps3-elf/lib/libc.a(lib_a-dtoa.o)
                                         0x18 (size before relaxing)
 *fill*         0x000000001000033c        0x4 00
 .rodata.cst8   0x0000000010000340       0x18 /usr/local/ps3dev/ppu/lib/gcc/powerpc64-ps3-elf/4.5.2/../../../../powerpc64-ps3-elf/lib/libc.a(lib_a-dtoa.o)
                                         0x20 (size before relaxing)
 .rodata.str1.8
                0x0000000010000358       0x14 /usr/local/ps3dev/ppu/lib/gcc/powerpc64-ps3-elf/4.5.2/../../../../powerpc64-ps3-elf/lib/libc.a(lib_a-dtoa.o)
                                         0x1a (size before relaxing)
 *fill*         0x000000001000036c        0x4 00
 .rodata.str1.8
                0x0000000010000370       0x20 /usr/local/ps3dev/ppu/lib/gcc/powerpc64-ps3-elf/4.5.2/../../../../powerpc64-ps3-elf/lib/libc.a(lib_a-gdtoa-gethex.o)
                                         0x1b (size before relaxing)
 .rodata.__libc_lock_attributes
                0x0000000010000390       0x10 /usr/local/ps3dev/ppu/lib/gcc/powerpc64-ps3-elf/4.5.2/../../../../powerpc64-ps3-elf/lib/libc.a(lib_a-lock_internal.o)
 .rodata.cst4   0x0000000000000000        0x8 /usr/local/ps3dev/ppu/lib/gcc/powerpc64-ps3-elf/4.5.2/../../../../powerpc64-ps3-elf/lib/libc.a(lib_a-mprec.o)
 .rodata.p05.2968
                0x00000000100003a0        0xc /usr/local/ps3dev/ppu/lib/gcc/powerpc64-ps3-elf/4.5.2/../../../../powerpc64-ps3-elf/lib/libc.a(lib_a-mprec.o)
 *fill*         0x00000000100003ac        0x4 00
 .rodata.__mprec_bigtens
                0x00000000100003b0       0x28 /usr/local/ps3dev/ppu/lib/gcc/powerpc64-ps3-elf/4.5.2/../../../../powerpc64-ps3-elf/lib/libc.a(lib_a-mprec.o)
                0x00000000100003b0                __mprec_bigtens
 .rodata.__mprec_tinytens
                0x00000000100003d8       0x28 /usr/local/ps3dev/ppu/lib/gcc/powerpc64-ps3-elf/4.5.2/../../../../powerpc64-ps3-elf/lib/libc.a(lib_a-mprec.o)
                0x00000000100003d8                __mprec_tinytens
 .rodata.__mprec_tens
                0x0000000010000400       0xc8 /usr/local/ps3dev/ppu/lib/gcc/powerpc64-ps3-elf/4.5.2/../../../../powerpc64-ps3-elf/lib/libc.a(lib_a-mprec.o)
                0x0000000010000400                __mprec_tens
 .rodata.zeroes.4369
                0x00000000100004c8       0x10 /usr/local/ps3dev/ppu/lib/gcc/powerpc64-ps3-elf/4.5.2/../../../../powerpc64-ps3-elf/lib/libc.a(lib_a-svfiprintf.o)
 .rodata.blanks.4368
                0x00000000100004d8       0x10 /usr/local/ps3dev/ppu/lib/gcc/powerpc64-ps3-elf/4.5.2/../../../../powerpc64-ps3-elf/lib/libc.a(lib_a-svfiprintf.o)
 .rodata.str1.8
                0x0000000000000000       0x37 /usr/local/ps3dev/ppu/lib/gcc/powerpc64-ps3-elf/4.5.2/../../../../powerpc64-ps3-elf/lib/libc.a(lib_a-svfiprintf.o)

.rodata1
 *(.rodata1)

.spu_image
 *(.spu_image .spu_image.*)
                0x0000000010010000                . = ALIGN (0x10000)

.data           0x0000000010010000     0x1098
 *(.data .data.* .gnu.linkonce.d.*)
 .data          0x0000000010010000        0x0 /usr/local/ps3dev/ppu/lib/gcc/powerpc64-ps3-elf/4.5.2/../../../../powerpc64-ps3-elf/lib/lv2-crti.o
 .data          0x0000000010010000        0x0 /usr/local/ps3dev/ppu/lib/gcc/powerpc64-ps3-elf/4.5.2/crtbegin.o
 .data.__dso_handle
                0x0000000010010000        0x8 /usr/local/ps3dev/ppu/lib/gcc/powerpc64-ps3-elf/4.5.2/crtbegin.o
                0x0000000010010000                __dso_handle
 .data          0x0000000010010008        0x0 /usr/local/ps3dev/ppu/lib/gcc/powerpc64-ps3-elf/4.5.2/../../../../powerpc64-ps3-elf/lib/lv2-crt0.o
 .data          0x0000000010010008        0x0 /usr/local/ps3dev/ppu/lib/gcc/powerpc64-ps3-elf/4.5.2/../../../../powerpc64-ps3-elf/lib/lv2-sprx.o
 .data          0x0000000010010008        0x0 main.o
 .data          0x0000000010010008        0x0 rsxutil.o
 .data.sLabelVal
                0x0000000010010008        0x4 rsxutil.o
 .data.first_fb
                0x000000001001000c        0x4 rsxutil.o
                0x000000001001000c                first_fb
 .data          0x0000000010010010        0x0 /usr/local/ps3dev/libpsl1ght/ppu/lib/librsx.a(init.o)
 .data          0x0000000010010010        0x0 /usr/local/ps3dev/libpsl1ght/ppu/lib/librsx.a(buffer.o)
 .data          0x0000000010010010        0x0 /usr/local/ps3dev/libpsl1ght/ppu/lib/librsx.a(commands.o)
 .data          0x0000000010010010        0x0 /usr/local/ps3dev/libpsl1ght/ppu/lib/librsx.a(mm.o)
 .data          0x0000000010010010        0x0 /usr/local/ps3dev/libpsl1ght/ppu/lib/librsx.a(vertex_program.o)
 .data          0x0000000010010010        0x0 /usr/local/ps3dev/libpsl1ght/ppu/lib/librsx.a(fragment_program.o)
 .data          0x0000000010010010        0x0 /usr/local/ps3dev/libpsl1ght/ppu/lib/libgcm_sys.a(sprx.o)
 .data          0x0000000010010010        0x0 /usr/local/ps3dev/libpsl1ght/ppu/lib/libio.a(sprx.o)
 .data          0x0000000010010010        0x0 /usr/local/ps3dev/libpsl1ght/ppu/lib/libsysutil.a(sprx.o)
 .data          0x0000000010010010        0x0 /usr/local/ps3dev/libpsl1ght/ppu/lib/libsysutil.a(sysutil_wrapper.o)
 .data          0x0000000010010010        0x0 /usr/local/ps3dev/libpsl1ght/ppu/lib/librt.a(sbrk.o)
 .data          0x0000000010010010        0x0 /usr/local/ps3dev/libpsl1ght/ppu/lib/librt.a(exit.o)
 .data          0x0000000010010010        0x0 /usr/local/ps3dev/libpsl1ght/ppu/lib/librt.a(close.o)
 .data          0x0000000010010010        0x0 /usr/local/ps3dev/libpsl1ght/ppu/lib/librt.a(lseek.o)
 .data          0x0000000010010010        0x0 /usr/local/ps3dev/libpsl1ght/ppu/lib/librt.a(read.o)
 .data          0x0000000010010010        0x0 /usr/local/ps3dev/libpsl1ght/ppu/lib/librt.a(open.o)
 .data          0x0000000010010010        0x0 /usr/local/ps3dev/libpsl1ght/ppu/lib/librt.a(sleep.o)
 .data          0x0000000010010010        0x0 /usr/local/ps3dev/libpsl1ght/ppu/lib/librt.a(write.o)
 .data          0x0000000010010010        0x0 /usr/local/ps3dev/libpsl1ght/ppu/lib/librt.a(fstat.o)
 .data          0x0000000010010010        0x0 /usr/local/ps3dev/libpsl1ght/ppu/lib/librt.a(socket.o)
 .data          0x0000000010010010        0x0 /usr/local/ps3dev/libpsl1ght/ppu/lib/librt.a(lock.o)
 .data          0x0000000010010010        0x0 /usr/local/ps3dev/libpsl1ght/ppu/lib/librt.a(dirent.o)
 .data          0x0000000010010010        0x0 /usr/local/ps3dev/libpsl1ght/ppu/lib/librt.a(mkdir.o)
 .data          0x0000000010010010        0x0 /usr/local/ps3dev/libpsl1ght/ppu/lib/librt.a(times.o)
 .data          0x0000000010010010        0x0 /usr/local/ps3dev/libpsl1ght/ppu/lib/librt.a(umask.o)
 .data.g_umask  0x0000000010010010        0x4 /usr/local/ps3dev/libpsl1ght/ppu/lib/librt.a(umask.o)
                0x0000000010010010                g_umask
 .data          0x0000000010010014        0x0 /usr/local/ps3dev/libpsl1ght/ppu/lib/librt.a(lv2errno.o)
 .data          0x0000000010010014        0x0 /usr/local/ps3dev/libpsl1ght/ppu/lib/librt.a(heap.o)
 .data          0x0000000010010014        0x0 /usr/local/ps3dev/libpsl1ght/ppu/lib/librt.a(chmod.o)
 .data          0x0000000010010014        0x0 /usr/local/ps3dev/libpsl1ght/ppu/lib/librt.a(rmdir.o)
 .data          0x0000000010010014        0x0 /usr/local/ps3dev/libpsl1ght/ppu/lib/librt.a(isatty.o)
 .data          0x0000000010010014        0x0 /usr/local/ps3dev/libpsl1ght/ppu/lib/librt.a(gettod.o)
 .data          0x0000000010010014        0x0 /usr/local/ps3dev/libpsl1ght/ppu/lib/librt.a(settod.o)
 .data          0x0000000010010014        0x0 /usr/local/ps3dev/libpsl1ght/ppu/lib/liblv2.a(sprx.o)
 .data          0x0000000010010014        0x0 /usr/local/ps3dev/ppu/lib/gcc/powerpc64-ps3-elf/4.5.2/../../../../powerpc64-ps3-elf/lib/libsysbase.a(syscalls.o)
 .data          0x0000000010010014        0x0 /usr/local/ps3dev/ppu/lib/gcc/powerpc64-ps3-elf/4.5.2/../../../../powerpc64-ps3-elf/lib/libsysbase.a(sleep.o)
 .data          0x0000000010010014        0x0 /usr/local/ps3dev/ppu/lib/gcc/powerpc64-ps3-elf/4.5.2/../../../../powerpc64-ps3-elf/lib/libc.a(lib_a-atexit.o)
 .data          0x0000000010010014        0x0 /usr/local/ps3dev/ppu/lib/gcc/powerpc64-ps3-elf/4.5.2/../../../../powerpc64-ps3-elf/lib/libc.a(lib_a-errno.o)
 .data          0x0000000010010014        0x0 /usr/local/ps3dev/ppu/lib/gcc/powerpc64-ps3-elf/4.5.2/../../../../powerpc64-ps3-elf/lib/libc.a(lib_a-exit.o)
 .data          0x0000000010010014        0x0 /usr/local/ps3dev/ppu/lib/gcc/powerpc64-ps3-elf/4.5.2/../../../../powerpc64-ps3-elf/lib/libc.a(lib_a-getreent.o)
 .data          0x0000000010010014        0x0 /usr/local/ps3dev/ppu/lib/gcc/powerpc64-ps3-elf/4.5.2/../../../../powerpc64-ps3-elf/lib/libc.a(lib_a-impure.o)
 *fill*         0x0000000010010014        0x4 00
 .data.impure_data
                0x0000000010010018      0x778 /usr/local/ps3dev/ppu/lib/gcc/powerpc64-ps3-elf/4.5.2/../../../../powerpc64-ps3-elf/lib/libc.a(lib_a-impure.o)
 .data._impure_ptr
                0x0000000010010790        0x8 /usr/local/ps3dev/ppu/lib/gcc/powerpc64-ps3-elf/4.5.2/../../../../powerpc64-ps3-elf/lib/libc.a(lib_a-impure.o)
                0x0000000010010790                _impure_ptr
 .data          0x0000000010010798        0x0 /usr/local/ps3dev/ppu/lib/gcc/powerpc64-ps3-elf/4.5.2/../../../../powerpc64-ps3-elf/lib/libc.a(lib_a-malign.o)
 .data          0x0000000010010798        0x0 /usr/local/ps3dev/ppu/lib/gcc/powerpc64-ps3-elf/4.5.2/../../../../powerpc64-ps3-elf/lib/libc.a(lib_a-malignr.o)
 .data          0x0000000010010798        0x0 /usr/local/ps3dev/ppu/lib/gcc/powerpc64-ps3-elf/4.5.2/../../../../powerpc64-ps3-elf/lib/libc.a(lib_a-malloc.o)
 .data          0x0000000010010798        0x0 /usr/local/ps3dev/ppu/lib/gcc/powerpc64-ps3-elf/4.5.2/../../../../powerpc64-ps3-elf/lib/libc.a(lib_a-mallocr.o)
 .data.rel.__malloc_av_
                0x0000000010010798      0x810 /usr/local/ps3dev/ppu/lib/gcc/powerpc64-ps3-elf/4.5.2/../../../../powerpc64-ps3-elf/lib/libc.a(lib_a-mallocr.o)
                0x0000000010010798                __malloc_av_
 .data.__malloc_trim_threshold
                0x0000000010010fa8        0x8 /usr/local/ps3dev/ppu/lib/gcc/powerpc64-ps3-elf/4.5.2/../../../../powerpc64-ps3-elf/lib/libc.a(lib_a-mallocr.o)
                0x0000000010010fa8                __malloc_trim_threshold
 .data.__malloc_sbrk_base
                0x0000000010010fb0        0x8 /usr/local/ps3dev/ppu/lib/gcc/powerpc64-ps3-elf/4.5.2/../../../../powerpc64-ps3-elf/lib/libc.a(lib_a-mallocr.o)
                0x0000000010010fb0                __malloc_sbrk_base
 .data          0x0000000010010fb8        0x0 /usr/local/ps3dev/ppu/lib/gcc/powerpc64-ps3-elf/4.5.2/../../../../powerpc64-ps3-elf/lib/libc.a(lib_a-memset.o)
 .data          0x0000000010010fb8        0x0 /usr/local/ps3dev/ppu/lib/gcc/powerpc64-ps3-elf/4.5.2/../../../../powerpc64-ps3-elf/lib/libc.a(lib_a-mlock.o)
 .data          0x0000000010010fb8        0x0 /usr/local/ps3dev/ppu/lib/gcc/powerpc64-ps3-elf/4.5.2/../../../../powerpc64-ps3-elf/lib/libc.a(lib_a-puts.o)
 .data          0x0000000010010fb8        0x0 /usr/local/ps3dev/ppu/lib/gcc/powerpc64-ps3-elf/4.5.2/../../../../powerpc64-ps3-elf/lib/libc.a(lib_a-sscanf.o)
 .data          0x0000000010010fb8        0x0 /usr/local/ps3dev/ppu/lib/gcc/powerpc64-ps3-elf/4.5.2/../../../../powerpc64-ps3-elf/lib/libc.a(lib_a-stdio.o)
 .data          0x0000000010010fb8        0x0 /usr/local/ps3dev/ppu/lib/gcc/powerpc64-ps3-elf/4.5.2/../../../../powerpc64-ps3-elf/lib/libc.a(lib_a-strcasecmp.o)
 .data          0x0000000010010fb8        0x0 /usr/local/ps3dev/ppu/lib/gcc/powerpc64-ps3-elf/4.5.2/../../../../powerpc64-ps3-elf/lib/libc.a(lib_a-strlen.o)
 .data          0x0000000010010fb8        0x0 /usr/local/ps3dev/ppu/lib/gcc/powerpc64-ps3-elf/4.5.2/../../../../powerpc64-ps3-elf/lib/libc.a(lib_a-strncpy.o)
 .data          0x0000000010010fb8        0x0 /usr/local/ps3dev/ppu/lib/gcc/powerpc64-ps3-elf/4.5.2/../../../../powerpc64-ps3-elf/lib/libc.a(lib_a-svfscanf.o)
 .data          0x0000000010010fb8        0x0 /usr/local/ps3dev/ppu/lib/gcc/powerpc64-ps3-elf/4.5.2/../../../../powerpc64-ps3-elf/lib/libc.a(lib_a-__atexit.o)
 .data          0x0000000010010fb8        0x0 /usr/local/ps3dev/ppu/lib/gcc/powerpc64-ps3-elf/4.5.2/../../../../powerpc64-ps3-elf/lib/libc.a(lib_a-__call_atexit.o)
 .data          0x0000000010010fb8        0x0 /usr/local/ps3dev/ppu/lib/gcc/powerpc64-ps3-elf/4.5.2/../../../../powerpc64-ps3-elf/lib/libc.a(lib_a-ctype_.o)
 .data.rel.__ctype_ptr__
                0x0000000010010fb8        0x8 /usr/local/ps3dev/ppu/lib/gcc/powerpc64-ps3-elf/4.5.2/../../../../powerpc64-ps3-elf/lib/libc.a(lib_a-ctype_.o)
                0x0000000010010fb8                __ctype_ptr__
 .data          0x0000000010010fc0        0x0 /usr/local/ps3dev/ppu/lib/gcc/powerpc64-ps3-elf/4.5.2/../../../../powerpc64-ps3-elf/lib/libc.a(lib_a-findfp.o)
 .data          0x0000000010010fc0        0x0 /usr/local/ps3dev/ppu/lib/gcc/powerpc64-ps3-elf/4.5.2/../../../../powerpc64-ps3-elf/lib/libc.a(lib_a-freer.o)
 .data          0x0000000010010fc0        0x0 /usr/local/ps3dev/ppu/lib/gcc/powerpc64-ps3-elf/4.5.2/../../../../powerpc64-ps3-elf/lib/libc.a(lib_a-fvwrite.o)
 .data          0x0000000010010fc0        0x0 /usr/local/ps3dev/ppu/lib/gcc/powerpc64-ps3-elf/4.5.2/../../../../powerpc64-ps3-elf/lib/libc.a(lib_a-fwalk.o)
 .data          0x0000000010010fc0        0x0 /usr/local/ps3dev/ppu/lib/gcc/powerpc64-ps3-elf/4.5.2/../../../../powerpc64-ps3-elf/lib/libc.a(lib_a-iswspace.o)
 .data          0x0000000010010fc0        0x0 /usr/local/ps3dev/ppu/lib/gcc/powerpc64-ps3-elf/4.5.2/../../../../powerpc64-ps3-elf/lib/libc.a(lib_a-locale.o)
 .data.lc_message_charset
                0x0000000010010fc0       0x20 /usr/local/ps3dev/ppu/lib/gcc/powerpc64-ps3-elf/4.5.2/../../../../powerpc64-ps3-elf/lib/libc.a(lib_a-locale.o)
 .data.lconv    0x0000000010010fe0       0x60 /usr/local/ps3dev/ppu/lib/gcc/powerpc64-ps3-elf/4.5.2/../../../../powerpc64-ps3-elf/lib/libc.a(lib_a-locale.o)
 .data.lc_ctype_charset
                0x0000000010011040       0x20 /usr/local/ps3dev/ppu/lib/gcc/powerpc64-ps3-elf/4.5.2/../../../../powerpc64-ps3-elf/lib/libc.a(lib_a-locale.o)
 .data.__mb_cur_max
                0x0000000010011060        0x4 /usr/local/ps3dev/ppu/lib/gcc/powerpc64-ps3-elf/4.5.2/../../../../powerpc64-ps3-elf/lib/libc.a(lib_a-locale.o)
                0x0000000010011060                __mb_cur_max
 .data          0x0000000010011064        0x0 /usr/local/ps3dev/ppu/lib/gcc/powerpc64-ps3-elf/4.5.2/../../../../powerpc64-ps3-elf/lib/libc.a(lib_a-lock_recursive.o)
 .data          0x0000000010011064        0x0 /usr/local/ps3dev/ppu/lib/gcc/powerpc64-ps3-elf/4.5.2/../../../../powerpc64-ps3-elf/lib/libc.a(lib_a-mbrtowc.o)
 .data          0x0000000010011064        0x0 /usr/local/ps3dev/ppu/lib/gcc/powerpc64-ps3-elf/4.5.2/../../../../powerpc64-ps3-elf/lib/libc.a(lib_a-mbtowc_r.o)
 *fill*         0x0000000010011064        0x4 00
 .data.rel.__mbtowc
                0x0000000010011068        0x8 /usr/local/ps3dev/ppu/lib/gcc/powerpc64-ps3-elf/4.5.2/../../../../powerpc64-ps3-elf/lib/libc.a(lib_a-mbtowc_r.o)
                0x0000000010011068                __mbtowc
 .data          0x0000000010011070        0x0 /usr/local/ps3dev/ppu/lib/gcc/powerpc64-ps3-elf/4.5.2/../../../../powerpc64-ps3-elf/lib/libc.a(lib_a-memchr.o)
 .data          0x0000000010011070        0x0 /usr/local/ps3dev/ppu/lib/gcc/powerpc64-ps3-elf/4.5.2/../../../../powerpc64-ps3-elf/lib/libc.a(lib_a-memcpy.o)
 .data          0x0000000010011070        0x0 /usr/local/ps3dev/ppu/lib/gcc/powerpc64-ps3-elf/4.5.2/../../../../powerpc64-ps3-elf/lib/libc.a(lib_a-memmove.o)
 .data          0x0000000010011070        0x0 /usr/local/ps3dev/ppu/lib/gcc/powerpc64-ps3-elf/4.5.2/../../../../powerpc64-ps3-elf/lib/libc.a(lib_a-reallocr.o)
 .data          0x0000000010011070        0x0 /usr/local/ps3dev/ppu/lib/gcc/powerpc64-ps3-elf/4.5.2/../../../../powerpc64-ps3-elf/lib/libc.a(lib_a-sccl.o)
 .data          0x0000000010011070        0x0 /usr/local/ps3dev/ppu/lib/gcc/powerpc64-ps3-elf/4.5.2/../../../../powerpc64-ps3-elf/lib/libc.a(lib_a-sf_nan.o)
 .data          0x0000000010011070        0x0 /usr/local/ps3dev/ppu/lib/gcc/powerpc64-ps3-elf/4.5.2/../../../../powerpc64-ps3-elf/lib/libc.a(lib_a-s_fpclassify.o)
 .data          0x0000000010011070        0x0 /usr/local/ps3dev/ppu/lib/gcc/powerpc64-ps3-elf/4.5.2/../../../../powerpc64-ps3-elf/lib/libc.a(lib_a-sprintf.o)
 .data          0x0000000010011070        0x0 /usr/local/ps3dev/ppu/lib/gcc/powerpc64-ps3-elf/4.5.2/../../../../powerpc64-ps3-elf/lib/libc.a(lib_a-strcmp.o)
 .data          0x0000000010011070        0x0 /usr/local/ps3dev/ppu/lib/gcc/powerpc64-ps3-elf/4.5.2/../../../../powerpc64-ps3-elf/lib/libc.a(lib_a-strtod.o)
 .data.fpi.2928
                0x0000000010011070       0x14 /usr/local/ps3dev/ppu/lib/gcc/powerpc64-ps3-elf/4.5.2/../../../../powerpc64-ps3-elf/lib/libc.a(lib_a-strtod.o)
 .data.fpinan.2964
                0x0000000010011084       0x14 /usr/local/ps3dev/ppu/lib/gcc/powerpc64-ps3-elf/4.5.2/../../../../powerpc64-ps3-elf/lib/libc.a(lib_a-strtod.o)
 .data          0x0000000010011098        0x0 /usr/local/ps3dev/ppu/lib/gcc/powerpc64-ps3-elf/4.5.2/../../../../powerpc64-ps3-elf/lib/libc.a(lib_a-strtoll_r.o)
 .data          0x0000000010011098        0x0 /usr/local/ps3dev/ppu/lib/gcc/powerpc64-ps3-elf/4.5.2/../../../../powerpc64-ps3-elf/lib/libc.a(lib_a-strtol.o)
 .data          0x0000000010011098        0x0 /usr/local/ps3dev/ppu/lib/gcc/powerpc64-ps3-elf/4.5.2/../../../../powerpc64-ps3-elf/lib/libc.a(lib_a-strtoull_r.o)
 .data          0x0000000010011098        0x0 /usr/local/ps3dev/ppu/lib/gcc/powerpc64-ps3-elf/4.5.2/../../../../powerpc64-ps3-elf/lib/libc.a(lib_a-strtoul.o)
 .data          0x0000000010011098        0x0 /usr/local/ps3dev/ppu/lib/gcc/powerpc64-ps3-elf/4.5.2/../../../../powerpc64-ps3-elf/lib/libc.a(lib_a-svfiscanf.o)
 .data          0x0000000010011098        0x0 /usr/local/ps3dev/ppu/lib/gcc/powerpc64-ps3-elf/4.5.2/../../../../powerpc64-ps3-elf/lib/libc.a(lib_a-svfprintf.o)
 .data          0x0000000010011098        0x0 /usr/local/ps3dev/ppu/lib/gcc/powerpc64-ps3-elf/4.5.2/../../../../powerpc64-ps3-elf/lib/libc.a(lib_a-ungetc.o)
 .data          0x0000000010011098        0x0 /usr/local/ps3dev/ppu/lib/gcc/powerpc64-ps3-elf/4.5.2/../../../../powerpc64-ps3-elf/lib/libc.a(lib_a-wsetup.o)
 .data          0x0000000010011098        0x0 /usr/local/ps3dev/ppu/lib/gcc/powerpc64-ps3-elf/4.5.2/../../../../powerpc64-ps3-elf/lib/libc.a(lib_a-dtoa.o)
 .data          0x0000000010011098        0x0 /usr/local/ps3dev/ppu/lib/gcc/powerpc64-ps3-elf/4.5.2/../../../../powerpc64-ps3-elf/lib/libc.a(lib_a-fclose.o)
 .data          0x0000000010011098        0x0 /usr/local/ps3dev/ppu/lib/gcc/powerpc64-ps3-elf/4.5.2/../../../../powerpc64-ps3-elf/lib/libc.a(lib_a-fflush.o)
 .data          0x0000000010011098        0x0 /usr/local/ps3dev/ppu/lib/gcc/powerpc64-ps3-elf/4.5.2/../../../../powerpc64-ps3-elf/lib/libc.a(lib_a-gdtoa-gethex.o)
 .data          0x0000000010011098        0x0 /usr/local/ps3dev/ppu/lib/gcc/powerpc64-ps3-elf/4.5.2/../../../../powerpc64-ps3-elf/lib/libc.a(lib_a-gdtoa-hexnan.o)
 .data          0x0000000010011098        0x0 /usr/local/ps3dev/ppu/lib/gcc/powerpc64-ps3-elf/4.5.2/../../../../powerpc64-ps3-elf/lib/libc.a(lib_a-lock_internal.o)
 .data          0x0000000010011098        0x0 /usr/local/ps3dev/ppu/lib/gcc/powerpc64-ps3-elf/4.5.2/../../../../powerpc64-ps3-elf/lib/libc.a(lib_a-makebuf.o)
 .data          0x0000000010011098        0x0 /usr/local/ps3dev/ppu/lib/gcc/powerpc64-ps3-elf/4.5.2/../../../../powerpc64-ps3-elf/lib/libc.a(lib_a-mprec.o)
 .data          0x0000000010011098        0x0 /usr/local/ps3dev/ppu/lib/gcc/powerpc64-ps3-elf/4.5.2/../../../../powerpc64-ps3-elf/lib/libc.a(lib_a-strncmp.o)
 .data          0x0000000010011098        0x0 /usr/local/ps3dev/ppu/lib/gcc/powerpc64-ps3-elf/4.5.2/../../../../powerpc64-ps3-elf/lib/libc.a(lib_a-svfiprintf.o)
 .data          0x0000000010011098        0x0 /usr/local/ps3dev/ppu/lib/gcc/powerpc64-ps3-elf/4.5.2/../../../../powerpc64-ps3-elf/lib/libc.a(lib_a-abort.o)
 .data          0x0000000010011098        0x0 /usr/local/ps3dev/ppu/lib/gcc/powerpc64-ps3-elf/4.5.2/../../../../powerpc64-ps3-elf/lib/libc.a(lib_a-callocr.o)
 .data          0x0000000010011098        0x0 /usr/local/ps3dev/ppu/lib/gcc/powerpc64-ps3-elf/4.5.2/../../../../powerpc64-ps3-elf/lib/libc.a(lib_a-signal.o)
 .data          0x0000000010011098        0x0 /usr/local/ps3dev/ppu/lib/gcc/powerpc64-ps3-elf/4.5.2/../../../../powerpc64-ps3-elf/lib/libsysbase.a(close.o)
 .data          0x0000000010011098        0x0 /usr/local/ps3dev/ppu/lib/gcc/powerpc64-ps3-elf/4.5.2/../../../../powerpc64-ps3-elf/lib/libsysbase.a(sbrk.o)
 .data          0x0000000010011098        0x0 /usr/local/ps3dev/ppu/lib/gcc/powerpc64-ps3-elf/4.5.2/../../../../powerpc64-ps3-elf/lib/libsysbase.a(_exit.o)
 .data          0x0000000010011098        0x0 /usr/local/ps3dev/ppu/lib/gcc/powerpc64-ps3-elf/4.5.2/../../../../powerpc64-ps3-elf/lib/libsysbase.a(fstat.o)
 .data          0x0000000010011098        0x0 /usr/local/ps3dev/ppu/lib/gcc/powerpc64-ps3-elf/4.5.2/../../../../powerpc64-ps3-elf/lib/libsysbase.a(isatty.o)
 .data          0x0000000010011098        0x0 /usr/local/ps3dev/ppu/lib/gcc/powerpc64-ps3-elf/4.5.2/../../../../powerpc64-ps3-elf/lib/libsysbase.a(lseek.o)
 .data          0x0000000010011098        0x0 /usr/local/ps3dev/ppu/lib/gcc/powerpc64-ps3-elf/4.5.2/../../../../powerpc64-ps3-elf/lib/libsysbase.a(read.o)
 .data          0x0000000010011098        0x0 /usr/local/ps3dev/ppu/lib/gcc/powerpc64-ps3-elf/4.5.2/../../../../powerpc64-ps3-elf/lib/libsysbase.a(write.o)
 .data          0x0000000010011098        0x0 /usr/local/ps3dev/ppu/lib/gcc/powerpc64-ps3-elf/4.5.2/../../../../powerpc64-ps3-elf/lib/libsysbase.a(lock.o)
 .data          0x0000000010011098        0x0 /usr/local/ps3dev/ppu/lib/gcc/powerpc64-ps3-elf/4.5.2/../../../../powerpc64-ps3-elf/lib/libsysbase.a(getpid.o)
 .data          0x0000000010011098        0x0 /usr/local/ps3dev/ppu/lib/gcc/powerpc64-ps3-elf/4.5.2/../../../../powerpc64-ps3-elf/lib/libsysbase.a(kill.o)
 .data          0x0000000010011098        0x0 /usr/local/ps3dev/ppu/lib/gcc/powerpc64-ps3-elf/4.5.2/crtend.o
 .data          0x0000000010011098        0x0 /usr/local/ps3dev/ppu/lib/gcc/powerpc64-ps3-elf/4.5.2/../../../../powerpc64-ps3-elf/lib/lv2-crtn.o
 *(.gnu.linkonce.d.*personality*)

.data1
 *(.data1)

.sdata
 *(.sdata .sdata.* .gnu.linkonce.s.*)
                0x0000000010011098                _edata = .
                0x0000000010011098                PROVIDE (edata, .)
                0x0000000010011098                __bss_start = .

.tocbss
 *(.tocbss)

.sbss           0x0000000010011098        0x0
                0x0000000010011098                PROVIDE (__sbss_start, .)
                0x0000000010011098                PROVIDE (___sbss_start, .)
 *(.dynsbss)
 *(.sbss .sbss.* .gnu.linkonce.sb.*)
 *(.scommon)
                0x0000000010011098                PROVIDE (__sbss_end, .)
                0x0000000010011098                PROVIDE (___sbss_end, .)

.plt
 *(.plt)

.bss            0x00000000100110c0     0x24e8
 *(.dynbss)
 *(.bss .bss.* .gnu.linkonce.b.*)
 .bss           0x00000000100110c0        0x0 /usr/local/ps3dev/ppu/lib/gcc/powerpc64-ps3-elf/4.5.2/../../../../powerpc64-ps3-elf/lib/lv2-crti.o
 .bss           0x00000000100110c0        0x0 /usr/local/ps3dev/ppu/lib/gcc/powerpc64-ps3-elf/4.5.2/crtbegin.o
 .bss.completed.4302
                0x00000000100110c0        0x1 /usr/local/ps3dev/ppu/lib/gcc/powerpc64-ps3-elf/4.5.2/crtbegin.o
 *fill*         0x00000000100110c1        0x7 00
 .bss.dtor_idx.4304
                0x00000000100110c8        0x8 /usr/local/ps3dev/ppu/lib/gcc/powerpc64-ps3-elf/4.5.2/crtbegin.o
 .bss.object.4314
                0x00000000100110d0       0x30 /usr/local/ps3dev/ppu/lib/gcc/powerpc64-ps3-elf/4.5.2/crtbegin.o
 .bss           0x0000000010011100        0x8 /usr/local/ps3dev/ppu/lib/gcc/powerpc64-ps3-elf/4.5.2/../../../../powerpc64-ps3-elf/lib/lv2-crt0.o
                0x0000000010011100                __libc_stack_end
 .bss           0x0000000010011108        0x0 /usr/local/ps3dev/ppu/lib/gcc/powerpc64-ps3-elf/4.5.2/../../../../powerpc64-ps3-elf/lib/lv2-sprx.o
 .bss           0x0000000010011108        0x0 main.o
 .bss.dialog_action
                0x0000000010011108        0x4 main.o
 .bss           0x000000001001110c        0x0 rsxutil.o
 *fill*         0x000000001001110c        0x4 00
 .bss.context   0x0000000010011110        0x8 rsxutil.o
                0x0000000010011110                context
 .bss.curr_fb   0x0000000010011118        0x4 rsxutil.o
                0x0000000010011118                curr_fb
 .bss           0x000000001001111c        0x0 /usr/local/ps3dev/libpsl1ght/ppu/lib/librsx.a(init.o)
 .bss           0x000000001001111c        0x0 /usr/local/ps3dev/libpsl1ght/ppu/lib/librsx.a(buffer.o)
 .bss           0x000000001001111c        0x0 /usr/local/ps3dev/libpsl1ght/ppu/lib/librsx.a(commands.o)
 .bss           0x000000001001111c        0x0 /usr/local/ps3dev/libpsl1ght/ppu/lib/librsx.a(mm.o)
 *fill*         0x000000001001111c        0x4 00
 .bss.__rsxheap_initialized
                0x0000000010011120        0x8 /usr/local/ps3dev/libpsl1ght/ppu/lib/librsx.a(mm.o)
 .bss.__rsx_config
                0x0000000010011128       0x18 /usr/local/ps3dev/libpsl1ght/ppu/lib/librsx.a(mm.o)
 .bss.__rsx_heap
                0x0000000010011140       0x48 /usr/local/ps3dev/libpsl1ght/ppu/lib/librsx.a(mm.o)
 .bss           0x0000000010011188        0x0 /usr/local/ps3dev/libpsl1ght/ppu/lib/librsx.a(vertex_program.o)
 .bss           0x0000000010011188        0x0 /usr/local/ps3dev/libpsl1ght/ppu/lib/librsx.a(fragment_program.o)
 .bss           0x0000000010011188        0x0 /usr/local/ps3dev/libpsl1ght/ppu/lib/libgcm_sys.a(sprx.o)
 .bss           0x0000000010011188        0x0 /usr/local/ps3dev/libpsl1ght/ppu/lib/libio.a(sprx.o)
 .bss           0x0000000010011188        0x0 /usr/local/ps3dev/libpsl1ght/ppu/lib/libsysutil.a(sprx.o)
 .bss           0x0000000010011188        0x0 /usr/local/ps3dev/libpsl1ght/ppu/lib/libsysutil.a(sysutil_wrapper.o)
 .bss           0x0000000010011188        0x0 /usr/local/ps3dev/libpsl1ght/ppu/lib/librt.a(sbrk.o)
 .bss.__sbrk_baseaddr
                0x0000000010011188        0x4 /usr/local/ps3dev/libpsl1ght/ppu/lib/librt.a(sbrk.o)
 *fill*         0x000000001001118c        0x4 00
 .bss.__sbrk_curr_regionentry
                0x0000000010011190        0x8 /usr/local/ps3dev/libpsl1ght/ppu/lib/librt.a(sbrk.o)
 *fill*         0x0000000010011198       0x28 00
 .bss.__region_list_entries
                0x00000000100111c0     0x2020 /usr/local/ps3dev/libpsl1ght/ppu/lib/librt.a(sbrk.o)
 .bss.__sbrk_spinlock
                0x00000000100131e0        0x4 /usr/local/ps3dev/libpsl1ght/ppu/lib/librt.a(sbrk.o)
 *fill*         0x00000000100131e4        0x4 00
 .bss.__region_heap
                0x00000000100131e8       0x48 /usr/local/ps3dev/libpsl1ght/ppu/lib/librt.a(sbrk.o)
 .bss           0x0000000010013230        0x0 /usr/local/ps3dev/libpsl1ght/ppu/lib/librt.a(exit.o)
 .bss           0x0000000010013230        0x0 /usr/local/ps3dev/libpsl1ght/ppu/lib/librt.a(close.o)
 .bss           0x0000000010013230        0x0 /usr/local/ps3dev/libpsl1ght/ppu/lib/librt.a(lseek.o)
 .bss           0x0000000010013230        0x0 /usr/local/ps3dev/libpsl1ght/ppu/lib/librt.a(read.o)
 .bss           0x0000000010013230        0x0 /usr/local/ps3dev/libpsl1ght/ppu/lib/librt.a(open.o)
 .bss           0x0000000010013230        0x0 /usr/local/ps3dev/libpsl1ght/ppu/lib/librt.a(sleep.o)
 .bss           0x0000000010013230        0x0 /usr/local/ps3dev/libpsl1ght/ppu/lib/librt.a(write.o)
 .bss           0x0000000010013230        0x0 /usr/local/ps3dev/libpsl1ght/ppu/lib/librt.a(fstat.o)
 .bss           0x0000000010013230        0x0 /usr/local/ps3dev/libpsl1ght/ppu/lib/librt.a(socket.o)
 .bss           0x0000000010013230        0x0 /usr/local/ps3dev/libpsl1ght/ppu/lib/librt.a(lock.o)
 .bss           0x0000000010013230        0x0 /usr/local/ps3dev/libpsl1ght/ppu/lib/librt.a(dirent.o)
 .bss           0x0000000010013230        0x0 /usr/local/ps3dev/libpsl1ght/ppu/lib/librt.a(mkdir.o)
 .bss           0x0000000010013230        0x0 /usr/local/ps3dev/libpsl1ght/ppu/lib/librt.a(times.o)
 .bss           0x0000000010013230        0x0 /usr/local/ps3dev/libpsl1ght/ppu/lib/librt.a(umask.o)
 .bss           0x0000000010013230        0x0 /usr/local/ps3dev/libpsl1ght/ppu/lib/librt.a(lv2errno.o)
 .bss           0x0000000010013230        0x0 /usr/local/ps3dev/libpsl1ght/ppu/lib/librt.a(heap.o)
 .bss           0x0000000010013230        0x0 /usr/local/ps3dev/libpsl1ght/ppu/lib/librt.a(chmod.o)
 .bss           0x0000000010013230        0x0 /usr/local/ps3dev/libpsl1ght/ppu/lib/librt.a(rmdir.o)
 .bss           0x0000000010013230        0x0 /usr/local/ps3dev/libpsl1ght/ppu/lib/librt.a(isatty.o)
 .bss           0x0000000010013230        0x0 /usr/local/ps3dev/libpsl1ght/ppu/lib/librt.a(gettod.o)
 .bss           0x0000000010013230        0x0 /usr/local/ps3dev/libpsl1ght/ppu/lib/librt.a(settod.o)
 .bss           0x0000000010013230        0x0 /usr/local/ps3dev/libpsl1ght/ppu/lib/liblv2.a(sprx.o)
 .bss           0x0000000010013230        0x0 /usr/local/ps3dev/ppu/lib/gcc/powerpc64-ps3-elf/4.5.2/../../../../powerpc64-ps3-elf/lib/libsysbase.a(syscalls.o)
 .bss.__syscalls
                0x0000000010013230      0x170 /usr/local/ps3dev/ppu/lib/gcc/powerpc64-ps3-elf/4.5.2/../../../../powerpc64-ps3-elf/lib/libsysbase.a(syscalls.o)
                0x0000000010013230                __syscalls
 .bss           0x00000000100133a0        0x0 /usr/local/ps3dev/ppu/lib/gcc/powerpc64-ps3-elf/4.5.2/../../../../powerpc64-ps3-elf/lib/libsysbase.a(sleep.o)
 .bss           0x00000000100133a0        0x0 /usr/local/ps3dev/ppu/lib/gcc/powerpc64-ps3-elf/4.5.2/../../../../powerpc64-ps3-elf/lib/libc.a(lib_a-atexit.o)
 .bss           0x00000000100133a0        0x0 /usr/local/ps3dev/ppu/lib/gcc/powerpc64-ps3-elf/4.5.2/../../../../powerpc64-ps3-elf/lib/libc.a(lib_a-errno.o)
 .bss           0x00000000100133a0        0x0 /usr/local/ps3dev/ppu/lib/gcc/powerpc64-ps3-elf/4.5.2/../../../../powerpc64-ps3-elf/lib/libc.a(lib_a-exit.o)
 .bss           0x00000000100133a0        0x0 /usr/local/ps3dev/ppu/lib/gcc/powerpc64-ps3-elf/4.5.2/../../../../powerpc64-ps3-elf/lib/libc.a(lib_a-getreent.o)
 .bss           0x00000000100133a0        0x0 /usr/local/ps3dev/ppu/lib/gcc/powerpc64-ps3-elf/4.5.2/../../../../powerpc64-ps3-elf/lib/libc.a(lib_a-impure.o)
 .bss           0x00000000100133a0        0x0 /usr/local/ps3dev/ppu/lib/gcc/powerpc64-ps3-elf/4.5.2/../../../../powerpc64-ps3-elf/lib/libc.a(lib_a-malign.o)
 .bss           0x00000000100133a0        0x0 /usr/local/ps3dev/ppu/lib/gcc/powerpc64-ps3-elf/4.5.2/../../../../powerpc64-ps3-elf/lib/libc.a(lib_a-malignr.o)
 .bss           0x00000000100133a0        0x0 /usr/local/ps3dev/ppu/lib/gcc/powerpc64-ps3-elf/4.5.2/../../../../powerpc64-ps3-elf/lib/libc.a(lib_a-malloc.o)
 .bss           0x00000000100133a0        0x0 /usr/local/ps3dev/ppu/lib/gcc/powerpc64-ps3-elf/4.5.2/../../../../powerpc64-ps3-elf/lib/libc.a(lib_a-mallocr.o)
 .bss.__malloc_max_total_mem
                0x00000000100133a0        0x8 /usr/local/ps3dev/ppu/lib/gcc/powerpc64-ps3-elf/4.5.2/../../../../powerpc64-ps3-elf/lib/libc.a(lib_a-mallocr.o)
                0x00000000100133a0                __malloc_max_total_mem
 .bss.__malloc_max_sbrked_mem
                0x00000000100133a8        0x8 /usr/local/ps3dev/ppu/lib/gcc/powerpc64-ps3-elf/4.5.2/../../../../powerpc64-ps3-elf/lib/libc.a(lib_a-mallocr.o)
                0x00000000100133a8                __malloc_max_sbrked_mem
 .bss.__malloc_top_pad
                0x00000000100133b0        0x8 /usr/local/ps3dev/ppu/lib/gcc/powerpc64-ps3-elf/4.5.2/../../../../powerpc64-ps3-elf/lib/libc.a(lib_a-mallocr.o)
                0x00000000100133b0                __malloc_top_pad
 .bss.__malloc_current_mallinfo
                0x00000000100133b8       0x28 /usr/local/ps3dev/ppu/lib/gcc/powerpc64-ps3-elf/4.5.2/../../../../powerpc64-ps3-elf/lib/libc.a(lib_a-mallocr.o)
                0x00000000100133b8                __malloc_current_mallinfo
 .bss           0x00000000100133e0        0x0 /usr/local/ps3dev/ppu/lib/gcc/powerpc64-ps3-elf/4.5.2/../../../../powerpc64-ps3-elf/lib/libc.a(lib_a-memset.o)
 .bss           0x00000000100133e0        0x0 /usr/local/ps3dev/ppu/lib/gcc/powerpc64-ps3-elf/4.5.2/../../../../powerpc64-ps3-elf/lib/libc.a(lib_a-mlock.o)
 .bss.__malloc_lock_object
                0x00000000100133e0       0x18 /usr/local/ps3dev/ppu/lib/gcc/powerpc64-ps3-elf/4.5.2/../../../../powerpc64-ps3-elf/lib/libc.a(lib_a-mlock.o)
 .bss           0x00000000100133f8        0x0 /usr/local/ps3dev/ppu/lib/gcc/powerpc64-ps3-elf/4.5.2/../../../../powerpc64-ps3-elf/lib/libc.a(lib_a-puts.o)
 .bss           0x00000000100133f8        0x0 /usr/local/ps3dev/ppu/lib/gcc/powerpc64-ps3-elf/4.5.2/../../../../powerpc64-ps3-elf/lib/libc.a(lib_a-sscanf.o)
 .bss           0x00000000100133f8        0x0 /usr/local/ps3dev/ppu/lib/gcc/powerpc64-ps3-elf/4.5.2/../../../../powerpc64-ps3-elf/lib/libc.a(lib_a-stdio.o)
 .bss           0x00000000100133f8        0x0 /usr/local/ps3dev/ppu/lib/gcc/powerpc64-ps3-elf/4.5.2/../../../../powerpc64-ps3-elf/lib/libc.a(lib_a-strcasecmp.o)
 .bss           0x00000000100133f8        0x0 /usr/local/ps3dev/ppu/lib/gcc/powerpc64-ps3-elf/4.5.2/../../../../powerpc64-ps3-elf/lib/libc.a(lib_a-strlen.o)
 .bss           0x00000000100133f8        0x0 /usr/local/ps3dev/ppu/lib/gcc/powerpc64-ps3-elf/4.5.2/../../../../powerpc64-ps3-elf/lib/libc.a(lib_a-strncpy.o)
 .bss           0x00000000100133f8        0x0 /usr/local/ps3dev/ppu/lib/gcc/powerpc64-ps3-elf/4.5.2/../../../../powerpc64-ps3-elf/lib/libc.a(lib_a-svfscanf.o)
 .bss           0x00000000100133f8        0x0 /usr/local/ps3dev/ppu/lib/gcc/powerpc64-ps3-elf/4.5.2/../../../../powerpc64-ps3-elf/lib/libc.a(lib_a-__atexit.o)
 .bss.__atexit_lock
                0x00000000100133f8       0x18 /usr/local/ps3dev/ppu/lib/gcc/powerpc64-ps3-elf/4.5.2/../../../../powerpc64-ps3-elf/lib/libc.a(lib_a-__atexit.o)
                0x00000000100133f8                __atexit_lock
 .bss           0x0000000010013410        0x0 /usr/local/ps3dev/ppu/lib/gcc/powerpc64-ps3-elf/4.5.2/../../../../powerpc64-ps3-elf/lib/libc.a(lib_a-__call_atexit.o)
 .bss           0x0000000010013410        0x0 /usr/local/ps3dev/ppu/lib/gcc/powerpc64-ps3-elf/4.5.2/../../../../powerpc64-ps3-elf/lib/libc.a(lib_a-ctype_.o)
 .bss           0x0000000010013410        0x0 /usr/local/ps3dev/ppu/lib/gcc/powerpc64-ps3-elf/4.5.2/../../../../powerpc64-ps3-elf/lib/libc.a(lib_a-findfp.o)
 .bss.__sfp_lock
                0x0000000010013410       0x18 /usr/local/ps3dev/ppu/lib/gcc/powerpc64-ps3-elf/4.5.2/../../../../powerpc64-ps3-elf/lib/libc.a(lib_a-findfp.o)
 .bss.__sinit_lock
                0x0000000010013428       0x18 /usr/local/ps3dev/ppu/lib/gcc/powerpc64-ps3-elf/4.5.2/../../../../powerpc64-ps3-elf/lib/libc.a(lib_a-findfp.o)
 .bss           0x0000000010013440        0x0 /usr/local/ps3dev/ppu/lib/gcc/powerpc64-ps3-elf/4.5.2/../../../../powerpc64-ps3-elf/lib/libc.a(lib_a-freer.o)
 .bss           0x0000000010013440        0x0 /usr/local/ps3dev/ppu/lib/gcc/powerpc64-ps3-elf/4.5.2/../../../../powerpc64-ps3-elf/lib/libc.a(lib_a-fvwrite.o)
 .bss           0x0000000010013440        0x0 /usr/local/ps3dev/ppu/lib/gcc/powerpc64-ps3-elf/4.5.2/../../../../powerpc64-ps3-elf/lib/libc.a(lib_a-fwalk.o)
 .bss           0x0000000010013440        0x0 /usr/local/ps3dev/ppu/lib/gcc/powerpc64-ps3-elf/4.5.2/../../../../powerpc64-ps3-elf/lib/libc.a(lib_a-iswspace.o)
 .bss           0x0000000010013440        0x0 /usr/local/ps3dev/ppu/lib/gcc/powerpc64-ps3-elf/4.5.2/../../../../powerpc64-ps3-elf/lib/libc.a(lib_a-locale.o)
 .bss._PathLocale
                0x0000000010013440        0x8 /usr/local/ps3dev/ppu/lib/gcc/powerpc64-ps3-elf/4.5.2/../../../../powerpc64-ps3-elf/lib/libc.a(lib_a-locale.o)
                0x0000000010013440                _PathLocale
 .bss.__nlocale_changed
                0x0000000010013448        0x4 /usr/local/ps3dev/ppu/lib/gcc/powerpc64-ps3-elf/4.5.2/../../../../powerpc64-ps3-elf/lib/libc.a(lib_a-locale.o)
                0x0000000010013448                __nlocale_changed
 .bss.__mlocale_changed
                0x000000001001344c        0x4 /usr/local/ps3dev/ppu/lib/gcc/powerpc64-ps3-elf/4.5.2/../../../../powerpc64-ps3-elf/lib/libc.a(lib_a-locale.o)
                0x000000001001344c                __mlocale_changed
 .bss           0x0000000010013450        0x0 /usr/local/ps3dev/ppu/lib/gcc/powerpc64-ps3-elf/4.5.2/../../../../powerpc64-ps3-elf/lib/libc.a(lib_a-lock_recursive.o)
 .bss           0x0000000010013450        0x0 /usr/local/ps3dev/ppu/lib/gcc/powerpc64-ps3-elf/4.5.2/../../../../powerpc64-ps3-elf/lib/libc.a(lib_a-mbrtowc.o)
 .bss           0x0000000010013450        0x0 /usr/local/ps3dev/ppu/lib/gcc/powerpc64-ps3-elf/4.5.2/../../../../powerpc64-ps3-elf/lib/libc.a(lib_a-mbtowc_r.o)
 .bss           0x0000000010013450        0x0 /usr/local/ps3dev/ppu/lib/gcc/powerpc64-ps3-elf/4.5.2/../../../../powerpc64-ps3-elf/lib/libc.a(lib_a-memchr.o)
 .bss           0x0000000010013450        0x0 /usr/local/ps3dev/ppu/lib/gcc/powerpc64-ps3-elf/4.5.2/../../../../powerpc64-ps3-elf/lib/libc.a(lib_a-memcpy.o)
 .bss           0x0000000010013450        0x0 /usr/local/ps3dev/ppu/lib/gcc/powerpc64-ps3-elf/4.5.2/../../../../powerpc64-ps3-elf/lib/libc.a(lib_a-memmove.o)
 .bss           0x0000000010013450        0x0 /usr/local/ps3dev/ppu/lib/gcc/powerpc64-ps3-elf/4.5.2/../../../../powerpc64-ps3-elf/lib/libc.a(lib_a-reallocr.o)
 .bss           0x0000000010013450        0x0 /usr/local/ps3dev/ppu/lib/gcc/powerpc64-ps3-elf/4.5.2/../../../../powerpc64-ps3-elf/lib/libc.a(lib_a-sccl.o)
 .bss           0x0000000010013450        0x0 /usr/local/ps3dev/ppu/lib/gcc/powerpc64-ps3-elf/4.5.2/../../../../powerpc64-ps3-elf/lib/libc.a(lib_a-sf_nan.o)
 .bss           0x0000000010013450        0x0 /usr/local/ps3dev/ppu/lib/gcc/powerpc64-ps3-elf/4.5.2/../../../../powerpc64-ps3-elf/lib/libc.a(lib_a-s_fpclassify.o)
 .bss           0x0000000010013450        0x0 /usr/local/ps3dev/ppu/lib/gcc/powerpc64-ps3-elf/4.5.2/../../../../powerpc64-ps3-elf/lib/libc.a(lib_a-sprintf.o)
 .bss           0x0000000010013450        0x0 /usr/local/ps3dev/ppu/lib/gcc/powerpc64-ps3-elf/4.5.2/../../../../powerpc64-ps3-elf/lib/libc.a(lib_a-strcmp.o)
 .bss           0x0000000010013450        0x0 /usr/local/ps3dev/ppu/lib/gcc/powerpc64-ps3-elf/4.5.2/../../../../powerpc64-ps3-elf/lib/libc.a(lib_a-strtod.o)
 .bss           0x0000000010013450        0x0 /usr/local/ps3dev/ppu/lib/gcc/powerpc64-ps3-elf/4.5.2/../../../../powerpc64-ps3-elf/lib/libc.a(lib_a-strtoll_r.o)
 .bss           0x0000000010013450        0x0 /usr/local/ps3dev/ppu/lib/gcc/powerpc64-ps3-elf/4.5.2/../../../../powerpc64-ps3-elf/lib/libc.a(lib_a-strtol.o)
 .bss           0x0000000010013450        0x0 /usr/local/ps3dev/ppu/lib/gcc/powerpc64-ps3-elf/4.5.2/../../../../powerpc64-ps3-elf/lib/libc.a(lib_a-strtoull_r.o)
 .bss           0x0000000010013450        0x0 /usr/local/ps3dev/ppu/lib/gcc/powerpc64-ps3-elf/4.5.2/../../../../powerpc64-ps3-elf/lib/libc.a(lib_a-strtoul.o)
 .bss           0x0000000010013450        0x0 /usr/local/ps3dev/ppu/lib/gcc/powerpc64-ps3-elf/4.5.2/../../../../powerpc64-ps3-elf/lib/libc.a(lib_a-svfiscanf.o)
 .bss           0x0000000010013450        0x0 /usr/local/ps3dev/ppu/lib/gcc/powerpc64-ps3-elf/4.5.2/../../../../powerpc64-ps3-elf/lib/libc.a(lib_a-svfprintf.o)
 .bss           0x0000000010013450        0x0 /usr/local/ps3dev/ppu/lib/gcc/powerpc64-ps3-elf/4.5.2/../../../../powerpc64-ps3-elf/lib/libc.a(lib_a-ungetc.o)
 .bss           0x0000000010013450        0x0 /usr/local/ps3dev/ppu/lib/gcc/powerpc64-ps3-elf/4.5.2/../../../../powerpc64-ps3-elf/lib/libc.a(lib_a-wsetup.o)
 .bss           0x0000000010013450        0x0 /usr/local/ps3dev/ppu/lib/gcc/powerpc64-ps3-elf/4.5.2/../../../../powerpc64-ps3-elf/lib/libc.a(lib_a-dtoa.o)
 .bss           0x0000000010013450        0x0 /usr/local/ps3dev/ppu/lib/gcc/powerpc64-ps3-elf/4.5.2/../../../../powerpc64-ps3-elf/lib/libc.a(lib_a-fclose.o)
 .bss           0x0000000010013450        0x0 /usr/local/ps3dev/ppu/lib/gcc/powerpc64-ps3-elf/4.5.2/../../../../powerpc64-ps3-elf/lib/libc.a(lib_a-fflush.o)
 .bss           0x0000000010013450        0x0 /usr/local/ps3dev/ppu/lib/gcc/powerpc64-ps3-elf/4.5.2/../../../../powerpc64-ps3-elf/lib/libc.a(lib_a-gdtoa-gethex.o)
 .bss           0x0000000010013450        0x0 /usr/local/ps3dev/ppu/lib/gcc/powerpc64-ps3-elf/4.5.2/../../../../powerpc64-ps3-elf/lib/libc.a(lib_a-gdtoa-hexnan.o)
 .bss           0x0000000010013450        0x0 /usr/local/ps3dev/ppu/lib/gcc/powerpc64-ps3-elf/4.5.2/../../../../powerpc64-ps3-elf/lib/libc.a(lib_a-lock_internal.o)
 .bss.metaLock  0x0000000010013450       0x18 /usr/local/ps3dev/ppu/lib/gcc/powerpc64-ps3-elf/4.5.2/../../../../powerpc64-ps3-elf/lib/libc.a(lib_a-lock_internal.o)
 .bss           0x0000000010013468        0x0 /usr/local/ps3dev/ppu/lib/gcc/powerpc64-ps3-elf/4.5.2/../../../../powerpc64-ps3-elf/lib/libc.a(lib_a-makebuf.o)
 .bss           0x0000000010013468        0x0 /usr/local/ps3dev/ppu/lib/gcc/powerpc64-ps3-elf/4.5.2/../../../../powerpc64-ps3-elf/lib/libc.a(lib_a-mprec.o)
 .bss           0x0000000010013468        0x0 /usr/local/ps3dev/ppu/lib/gcc/powerpc64-ps3-elf/4.5.2/../../../../powerpc64-ps3-elf/lib/libc.a(lib_a-strncmp.o)
 .bss           0x0000000010013468        0x0 /usr/local/ps3dev/ppu/lib/gcc/powerpc64-ps3-elf/4.5.2/../../../../powerpc64-ps3-elf/lib/libc.a(lib_a-svfiprintf.o)
 .bss           0x0000000010013468        0x0 /usr/local/ps3dev/ppu/lib/gcc/powerpc64-ps3-elf/4.5.2/../../../../powerpc64-ps3-elf/lib/libc.a(lib_a-abort.o)
 .bss           0x0000000010013468        0x0 /usr/local/ps3dev/ppu/lib/gcc/powerpc64-ps3-elf/4.5.2/../../../../powerpc64-ps3-elf/lib/libc.a(lib_a-callocr.o)
 .bss           0x0000000010013468        0x0 /usr/local/ps3dev/ppu/lib/gcc/powerpc64-ps3-elf/4.5.2/../../../../powerpc64-ps3-elf/lib/libc.a(lib_a-signal.o)
 .bss           0x0000000010013468        0x0 /usr/local/ps3dev/ppu/lib/gcc/powerpc64-ps3-elf/4.5.2/../../../../powerpc64-ps3-elf/lib/libsysbase.a(close.o)
 .bss           0x0000000010013468        0x0 /usr/local/ps3dev/ppu/lib/gcc/powerpc64-ps3-elf/4.5.2/../../../../powerpc64-ps3-elf/lib/libsysbase.a(sbrk.o)
 .bss           0x0000000010013468        0x0 /usr/local/ps3dev/ppu/lib/gcc/powerpc64-ps3-elf/4.5.2/../../../../powerpc64-ps3-elf/lib/libsysbase.a(_exit.o)
 .bss           0x0000000010013468        0x0 /usr/local/ps3dev/ppu/lib/gcc/powerpc64-ps3-elf/4.5.2/../../../../powerpc64-ps3-elf/lib/libsysbase.a(fstat.o)
 .bss           0x0000000010013468        0x0 /usr/local/ps3dev/ppu/lib/gcc/powerpc64-ps3-elf/4.5.2/../../../../powerpc64-ps3-elf/lib/libsysbase.a(isatty.o)
 .bss           0x0000000010013468        0x0 /usr/local/ps3dev/ppu/lib/gcc/powerpc64-ps3-elf/4.5.2/../../../../powerpc64-ps3-elf/lib/libsysbase.a(lseek.o)
 .bss           0x0000000010013468        0x0 /usr/local/ps3dev/ppu/lib/gcc/powerpc64-ps3-elf/4.5.2/../../../../powerpc64-ps3-elf/lib/libsysbase.a(read.o)
 .bss           0x0000000010013468        0x0 /usr/local/ps3dev/ppu/lib/gcc/powerpc64-ps3-elf/4.5.2/../../../../powerpc64-ps3-elf/lib/libsysbase.a(write.o)
 .bss           0x0000000010013468        0x0 /usr/local/ps3dev/ppu/lib/gcc/powerpc64-ps3-elf/4.5.2/../../../../powerpc64-ps3-elf/lib/libsysbase.a(lock.o)
 .bss           0x0000000010013468        0x0 /usr/local/ps3dev/ppu/lib/gcc/powerpc64-ps3-elf/4.5.2/../../../../powerpc64-ps3-elf/lib/libsysbase.a(getpid.o)
 .bss           0x0000000010013468        0x0 /usr/local/ps3dev/ppu/lib/gcc/powerpc64-ps3-elf/4.5.2/../../../../powerpc64-ps3-elf/lib/libsysbase.a(kill.o)
 .bss           0x0000000010013468        0x0 /usr/local/ps3dev/ppu/lib/gcc/powerpc64-ps3-elf/4.5.2/crtend.o
 .bss           0x0000000010013468        0x0 /usr/local/ps3dev/ppu/lib/gcc/powerpc64-ps3-elf/4.5.2/../../../../powerpc64-ps3-elf/lib/lv2-crtn.o
 *(COMMON)
 COMMON         0x0000000010013468       0x3c rsxutil.o
                0x0000000010013468                depth_offset
                0x000000001001346c                depth_pitch
                0x0000000010013470                color_pitch
                0x0000000010013478                depth_buffer
                0x0000000010013480                display_height
                0x0000000010013484                display_width
                0x0000000010013488                color_buffer
                0x0000000010013498                color_offset
                0x00000000100134a0                res
 *fill*         0x00000000100134a4        0x4 00
 COMMON         0x00000000100134a8      0x100 /usr/local/ps3dev/ppu/lib/gcc/powerpc64-ps3-elf/4.5.2/../../../../powerpc64-ps3-elf/lib/libc.a(lib_a-gdtoa-gethex.o)
                0x00000000100134a8                __hexdig
                0x00000000100135a8                . = ALIGN (0x8)

.iplt           0x00000000100135a8        0x0
 .iplt          0x0000000000000000        0x0 linker stubs
                0x0000000020000000                . = ALIGN (0x10000000)

.rsx_image
 *(.rsx_*)
                0x0000000020000000                _end = .
                0x0000000020000000                __end = .
                0x0000000020000000                PROVIDE (end, .)
                0x0000000020000000                . = ALIGN (0x8)

.stab
 *(.stab)

.stabstr
 *(.stabstr)

.stab.excl
 *(.stab.excl)

.stab.exclstr
 *(.stab.exclstr)

.stab.index
 *(.stab.index)

.stab.indexstr
 *(.stab.indexstr)

.comment        0x0000000000000000       0x11
 *(.comment)
 .comment       0x0000000000000000       0x11 /usr/local/ps3dev/ppu/lib/gcc/powerpc64-ps3-elf/4.5.2/crtbegin.o
                                         0x12 (size before relaxing)
 .comment       0x0000000000000000       0x12 /usr/local/ps3dev/ppu/lib/gcc/powerpc64-ps3-elf/4.5.2/../../../../powerpc64-ps3-elf/lib/lv2-crt0.o
 .comment       0x0000000000000000       0x12 main.o
 .comment       0x0000000000000000       0x12 rsxutil.o
 .comment       0x0000000000000000       0x12 /usr/local/ps3dev/libpsl1ght/ppu/lib/librsx.a(init.o)
 .comment       0x0000000000000000       0x12 /usr/local/ps3dev/libpsl1ght/ppu/lib/librsx.a(buffer.o)
 .comment       0x0000000000000000       0x12 /usr/local/ps3dev/libpsl1ght/ppu/lib/librsx.a(commands.o)
 .comment       0x0000000000000000       0x12 /usr/local/ps3dev/libpsl1ght/ppu/lib/librsx.a(mm.o)
 .comment       0x0000000000000000       0x12 /usr/local/ps3dev/libpsl1ght/ppu/lib/librsx.a(vertex_program.o)
 .comment       0x0000000000000000       0x12 /usr/local/ps3dev/libpsl1ght/ppu/lib/librsx.a(fragment_program.o)
 .comment       0x0000000000000000       0x12 /usr/local/ps3dev/libpsl1ght/ppu/lib/libgcm_sys.a(sprx.o)
 .comment       0x0000000000000000       0x12 /usr/local/ps3dev/libpsl1ght/ppu/lib/libio.a(sprx.o)
 .comment       0x0000000000000000       0x12 /usr/local/ps3dev/libpsl1ght/ppu/lib/libsysutil.a(sprx.o)
 .comment       0x0000000000000000       0x12 /usr/local/ps3dev/libpsl1ght/ppu/lib/libsysutil.a(sysutil_wrapper.o)
 .comment       0x0000000000000000       0x12 /usr/local/ps3dev/libpsl1ght/ppu/lib/librt.a(sbrk.o)
 .comment       0x0000000000000000       0x12 /usr/local/ps3dev/libpsl1ght/ppu/lib/librt.a(exit.o)
 .comment       0x0000000000000000       0x12 /usr/local/ps3dev/libpsl1ght/ppu/lib/librt.a(close.o)
 .comment       0x0000000000000000       0x12 /usr/local/ps3dev/libpsl1ght/ppu/lib/librt.a(lseek.o)
 .comment       0x0000000000000000       0x12 /usr/local/ps3dev/libpsl1ght/ppu/lib/librt.a(read.o)
 .comment       0x0000000000000000       0x12 /usr/local/ps3dev/libpsl1ght/ppu/lib/librt.a(open.o)
 .comment       0x0000000000000000       0x12 /usr/local/ps3dev/libpsl1ght/ppu/lib/librt.a(sleep.o)
 .comment       0x0000000000000000       0x12 /usr/local/ps3dev/libpsl1ght/ppu/lib/librt.a(write.o)
 .comment       0x0000000000000000       0x12 /usr/local/ps3dev/libpsl1ght/ppu/lib/librt.a(fstat.o)
 .comment       0x0000000000000000       0x12 /usr/local/ps3dev/libpsl1ght/ppu/lib/librt.a(socket.o)
 .comment       0x0000000000000000       0x12 /usr/local/ps3dev/libpsl1ght/ppu/lib/librt.a(lock.o)
 .comment       0x0000000000000000       0x12 /usr/local/ps3dev/libpsl1ght/ppu/lib/librt.a(dirent.o)
 .comment       0x0000000000000000       0x12 /usr/local/ps3dev/libpsl1ght/ppu/lib/librt.a(mkdir.o)
 .comment       0x0000000000000000       0x12 /usr/local/ps3dev/libpsl1ght/ppu/lib/librt.a(times.o)
 .comment       0x0000000000000000       0x12 /usr/local/ps3dev/libpsl1ght/ppu/lib/librt.a(umask.o)
 .comment       0x0000000000000000       0x12 /usr/local/ps3dev/libpsl1ght/ppu/lib/librt.a(lv2errno.o)
 .comment       0x0000000000000000       0x12 /usr/local/ps3dev/libpsl1ght/ppu/lib/librt.a(heap.o)
 .comment       0x0000000000000000       0x12 /usr/local/ps3dev/libpsl1ght/ppu/lib/librt.a(chmod.o)
 .comment       0x0000000000000000       0x12 /usr/local/ps3dev/libpsl1ght/ppu/lib/librt.a(rmdir.o)
 .comment       0x0000000000000000       0x12 /usr/local/ps3dev/libpsl1ght/ppu/lib/librt.a(isatty.o)
 .comment       0x0000000000000000       0x12 /usr/local/ps3dev/libpsl1ght/ppu/lib/librt.a(gettod.o)
 .comment       0x0000000000000000       0x12 /usr/local/ps3dev/libpsl1ght/ppu/lib/librt.a(settod.o)
 .comment       0x0000000000000000       0x12 /usr/local/ps3dev/libpsl1ght/ppu/lib/liblv2.a(sprx.o)
 .comment       0x0000000000000000       0x12 /usr/local/ps3dev/ppu/lib/gcc/powerpc64-ps3-elf/4.5.2/../../../../powerpc64-ps3-elf/lib/libsysbase.a(syscalls.o)
 .comment       0x0000000000000000       0x12 /usr/local/ps3dev/ppu/lib/gcc/powerpc64-ps3-elf/4.5.2/../../../../powerpc64-ps3-elf/lib/libsysbase.a(sleep.o)
 .comment       0x0000000000000000       0x12 /usr/local/ps3dev/ppu/lib/gcc/powerpc64-ps3-elf/4.5.2/../../../../powerpc64-ps3-elf/lib/libc.a(lib_a-atexit.o)
 .comment       0x0000000000000000       0x12 /usr/local/ps3dev/ppu/lib/gcc/powerpc64-ps3-elf/4.5.2/../../../../powerpc64-ps3-elf/lib/libc.a(lib_a-errno.o)
 .comment       0x0000000000000000       0x12 /usr/local/ps3dev/ppu/lib/gcc/powerpc64-ps3-elf/4.5.2/../../../../powerpc64-ps3-elf/lib/libc.a(lib_a-exit.o)
 .comment       0x0000000000000000       0x12 /usr/local/ps3dev/ppu/lib/gcc/powerpc64-ps3-elf/4.5.2/../../../../powerpc64-ps3-elf/lib/libc.a(lib_a-getreent.o)
 .comment       0x0000000000000000       0x12 /usr/local/ps3dev/ppu/lib/gcc/powerpc64-ps3-elf/4.5.2/../../../../powerpc64-ps3-elf/lib/libc.a(lib_a-impure.o)
 .comment       0x0000000000000000       0x12 /usr/local/ps3dev/ppu/lib/gcc/powerpc64-ps3-elf/4.5.2/../../../../powerpc64-ps3-elf/lib/libc.a(lib_a-malign.o)
 .comment       0x0000000000000000       0x12 /usr/local/ps3dev/ppu/lib/gcc/powerpc64-ps3-elf/4.5.2/../../../../powerpc64-ps3-elf/lib/libc.a(lib_a-malignr.o)
 .comment       0x0000000000000000       0x12 /usr/local/ps3dev/ppu/lib/gcc/powerpc64-ps3-elf/4.5.2/../../../../powerpc64-ps3-elf/lib/libc.a(lib_a-malloc.o)
 .comment       0x0000000000000000       0x12 /usr/local/ps3dev/ppu/lib/gcc/powerpc64-ps3-elf/4.5.2/../../../../powerpc64-ps3-elf/lib/libc.a(lib_a-mallocr.o)
 .comment       0x0000000000000000       0x12 /usr/local/ps3dev/ppu/lib/gcc/powerpc64-ps3-elf/4.5.2/../../../../powerpc64-ps3-elf/lib/libc.a(lib_a-memset.o)
 .comment       0x0000000000000000       0x12 /usr/local/ps3dev/ppu/lib/gcc/powerpc64-ps3-elf/4.5.2/../../../../powerpc64-ps3-elf/lib/libc.a(lib_a-mlock.o)
 .comment       0x0000000000000000       0x12 /usr/local/ps3dev/ppu/lib/gcc/powerpc64-ps3-elf/4.5.2/../../../../powerpc64-ps3-elf/lib/libc.a(lib_a-puts.o)
 .comment       0x0000000000000000       0x12 /usr/local/ps3dev/ppu/lib/gcc/powerpc64-ps3-elf/4.5.2/../../../../powerpc64-ps3-elf/lib/libc.a(lib_a-sscanf.o)
 .comment       0x0000000000000000       0x12 /usr/local/ps3dev/ppu/lib/gcc/powerpc64-ps3-elf/4.5.2/../../../../powerpc64-ps3-elf/lib/libc.a(lib_a-stdio.o)
 .comment       0x0000000000000000       0x12 /usr/local/ps3dev/ppu/lib/gcc/powerpc64-ps3-elf/4.5.2/../../../../powerpc64-ps3-elf/lib/libc.a(lib_a-strcasecmp.o)
 .comment       0x0000000000000000       0x12 /usr/local/ps3dev/ppu/lib/gcc/powerpc64-ps3-elf/4.5.2/../../../../powerpc64-ps3-elf/lib/libc.a(lib_a-strlen.o)
 .comment       0x0000000000000000       0x12 /usr/local/ps3dev/ppu/lib/gcc/powerpc64-ps3-elf/4.5.2/../../../../powerpc64-ps3-elf/lib/libc.a(lib_a-strncpy.o)
 .comment       0x0000000000000000       0x12 /usr/local/ps3dev/ppu/lib/gcc/powerpc64-ps3-elf/4.5.2/../../../../powerpc64-ps3-elf/lib/libc.a(lib_a-svfscanf.o)
 .comment       0x0000000000000000       0x12 /usr/local/ps3dev/ppu/lib/gcc/powerpc64-ps3-elf/4.5.2/../../../../powerpc64-ps3-elf/lib/libc.a(lib_a-__atexit.o)
 .comment       0x0000000000000000       0x12 /usr/local/ps3dev/ppu/lib/gcc/powerpc64-ps3-elf/4.5.2/../../../../powerpc64-ps3-elf/lib/libc.a(lib_a-__call_atexit.o)
 .comment       0x0000000000000000       0x12 /usr/local/ps3dev/ppu/lib/gcc/powerpc64-ps3-elf/4.5.2/../../../../powerpc64-ps3-elf/lib/libc.a(lib_a-ctype_.o)
 .comment       0x0000000000000000       0x12 /usr/local/ps3dev/ppu/lib/gcc/powerpc64-ps3-elf/4.5.2/../../../../powerpc64-ps3-elf/lib/libc.a(lib_a-findfp.o)
 .comment       0x0000000000000000       0x12 /usr/local/ps3dev/ppu/lib/gcc/powerpc64-ps3-elf/4.5.2/../../../../powerpc64-ps3-elf/lib/libc.a(lib_a-freer.o)
 .comment       0x0000000000000000       0x12 /usr/local/ps3dev/ppu/lib/gcc/powerpc64-ps3-elf/4.5.2/../../../../powerpc64-ps3-elf/lib/libc.a(lib_a-fvwrite.o)
 .comment       0x0000000000000000       0x12 /usr/local/ps3dev/ppu/lib/gcc/powerpc64-ps3-elf/4.5.2/../../../../powerpc64-ps3-elf/lib/libc.a(lib_a-fwalk.o)
 .comment       0x0000000000000000       0x12 /usr/local/ps3dev/ppu/lib/gcc/powerpc64-ps3-elf/4.5.2/../../../../powerpc64-ps3-elf/lib/libc.a(lib_a-iswspace.o)
 .comment       0x0000000000000000       0x12 /usr/local/ps3dev/ppu/lib/gcc/powerpc64-ps3-elf/4.5.2/../../../../powerpc64-ps3-elf/lib/libc.a(lib_a-locale.o)
 .comment       0x0000000000000000       0x12 /usr/local/ps3dev/ppu/lib/gcc/powerpc64-ps3-elf/4.5.2/../../../../powerpc64-ps3-elf/lib/libc.a(lib_a-lock_recursive.o)
 .comment       0x0000000000000000       0x12 /usr/local/ps3dev/ppu/lib/gcc/powerpc64-ps3-elf/4.5.2/../../../../powerpc64-ps3-elf/lib/libc.a(lib_a-mbrtowc.o)
 .comment       0x0000000000000000       0x12 /usr/local/ps3dev/ppu/lib/gcc/powerpc64-ps3-elf/4.5.2/../../../../powerpc64-ps3-elf/lib/libc.a(lib_a-mbtowc_r.o)
 .comment       0x0000000000000000       0x12 /usr/local/ps3dev/ppu/lib/gcc/powerpc64-ps3-elf/4.5.2/../../../../powerpc64-ps3-elf/lib/libc.a(lib_a-memchr.o)
 .comment       0x0000000000000000       0x12 /usr/local/ps3dev/ppu/lib/gcc/powerpc64-ps3-elf/4.5.2/../../../../powerpc64-ps3-elf/lib/libc.a(lib_a-memcpy.o)
 .comment       0x0000000000000000       0x12 /usr/local/ps3dev/ppu/lib/gcc/powerpc64-ps3-elf/4.5.2/../../../../powerpc64-ps3-elf/lib/libc.a(lib_a-memmove.o)
 .comment       0x0000000000000000       0x12 /usr/local/ps3dev/ppu/lib/gcc/powerpc64-ps3-elf/4.5.2/../../../../powerpc64-ps3-elf/lib/libc.a(lib_a-reallocr.o)
 .comment       0x0000000000000000       0x12 /usr/local/ps3dev/ppu/lib/gcc/powerpc64-ps3-elf/4.5.2/../../../../powerpc64-ps3-elf/lib/libc.a(lib_a-sccl.o)
 .comment       0x0000000000000000       0x12 /usr/local/ps3dev/ppu/lib/gcc/powerpc64-ps3-elf/4.5.2/../../../../powerpc64-ps3-elf/lib/libc.a(lib_a-sf_nan.o)
 .comment       0x0000000000000000       0x12 /usr/local/ps3dev/ppu/lib/gcc/powerpc64-ps3-elf/4.5.2/../../../../powerpc64-ps3-elf/lib/libc.a(lib_a-s_fpclassify.o)
 .comment       0x0000000000000000       0x12 /usr/local/ps3dev/ppu/lib/gcc/powerpc64-ps3-elf/4.5.2/../../../../powerpc64-ps3-elf/lib/libc.a(lib_a-sprintf.o)
 .comment       0x0000000000000000       0x12 /usr/local/ps3dev/ppu/lib/gcc/powerpc64-ps3-elf/4.5.2/../../../../powerpc64-ps3-elf/lib/libc.a(lib_a-strcmp.o)
 .comment       0x0000000000000000       0x12 /usr/local/ps3dev/ppu/lib/gcc/powerpc64-ps3-elf/4.5.2/../../../../powerpc64-ps3-elf/lib/libc.a(lib_a-strtod.o)
 .comment       0x0000000000000000       0x12 /usr/local/ps3dev/ppu/lib/gcc/powerpc64-ps3-elf/4.5.2/../../../../powerpc64-ps3-elf/lib/libc.a(lib_a-strtoll_r.o)
 .comment       0x0000000000000000       0x12 /usr/local/ps3dev/ppu/lib/gcc/powerpc64-ps3-elf/4.5.2/../../../../powerpc64-ps3-elf/lib/libc.a(lib_a-strtol.o)
 .comment       0x0000000000000000       0x12 /usr/local/ps3dev/ppu/lib/gcc/powerpc64-ps3-elf/4.5.2/../../../../powerpc64-ps3-elf/lib/libc.a(lib_a-strtoull_r.o)
 .comment       0x0000000000000000       0x12 /usr/local/ps3dev/ppu/lib/gcc/powerpc64-ps3-elf/4.5.2/../../../../powerpc64-ps3-elf/lib/libc.a(lib_a-strtoul.o)
 .comment       0x0000000000000000       0x12 /usr/local/ps3dev/ppu/lib/gcc/powerpc64-ps3-elf/4.5.2/../../../../powerpc64-ps3-elf/lib/libc.a(lib_a-svfiscanf.o)
 .comment       0x0000000000000000       0x12 /usr/local/ps3dev/ppu/lib/gcc/powerpc64-ps3-elf/4.5.2/../../../../powerpc64-ps3-elf/lib/libc.a(lib_a-svfprintf.o)
 .comment       0x0000000000000000       0x12 /usr/local/ps3dev/ppu/lib/gcc/powerpc64-ps3-elf/4.5.2/../../../../powerpc64-ps3-elf/lib/libc.a(lib_a-ungetc.o)
 .comment       0x0000000000000000       0x12 /usr/local/ps3dev/ppu/lib/gcc/powerpc64-ps3-elf/4.5.2/../../../../powerpc64-ps3-elf/lib/libc.a(lib_a-wsetup.o)
 .comment       0x0000000000000000       0x12 /usr/local/ps3dev/ppu/lib/gcc/powerpc64-ps3-elf/4.5.2/../../../../powerpc64-ps3-elf/lib/libc.a(lib_a-dtoa.o)
 .comment       0x0000000000000000       0x12 /usr/local/ps3dev/ppu/lib/gcc/powerpc64-ps3-elf/4.5.2/../../../../powerpc64-ps3-elf/lib/libc.a(lib_a-fclose.o)
 .comment       0x0000000000000000       0x12 /usr/local/ps3dev/ppu/lib/gcc/powerpc64-ps3-elf/4.5.2/../../../../powerpc64-ps3-elf/lib/libc.a(lib_a-fflush.o)
 .comment       0x0000000000000000       0x12 /usr/local/ps3dev/ppu/lib/gcc/powerpc64-ps3-elf/4.5.2/../../../../powerpc64-ps3-elf/lib/libc.a(lib_a-gdtoa-gethex.o)
 .comment       0x0000000000000000       0x12 /usr/local/ps3dev/ppu/lib/gcc/powerpc64-ps3-elf/4.5.2/../../../../powerpc64-ps3-elf/lib/libc.a(lib_a-gdtoa-hexnan.o)
 .comment       0x0000000000000000       0x12 /usr/local/ps3dev/ppu/lib/gcc/powerpc64-ps3-elf/4.5.2/../../../../powerpc64-ps3-elf/lib/libc.a(lib_a-lock_internal.o)
 .comment       0x0000000000000000       0x12 /usr/local/ps3dev/ppu/lib/gcc/powerpc64-ps3-elf/4.5.2/../../../../powerpc64-ps3-elf/lib/libc.a(lib_a-makebuf.o)
 .comment       0x0000000000000000       0x12 /usr/local/ps3dev/ppu/lib/gcc/powerpc64-ps3-elf/4.5.2/../../../../powerpc64-ps3-elf/lib/libc.a(lib_a-mprec.o)
 .comment       0x0000000000000000       0x12 /usr/local/ps3dev/ppu/lib/gcc/powerpc64-ps3-elf/4.5.2/../../../../powerpc64-ps3-elf/lib/libc.a(lib_a-strncmp.o)
 .comment       0x0000000000000000       0x12 /usr/local/ps3dev/ppu/lib/gcc/powerpc64-ps3-elf/4.5.2/../../../../powerpc64-ps3-elf/lib/libc.a(lib_a-svfiprintf.o)
 .comment       0x0000000000000000       0x12 /usr/local/ps3dev/ppu/lib/gcc/powerpc64-ps3-elf/4.5.2/../../../../powerpc64-ps3-elf/lib/libc.a(lib_a-abort.o)
 .comment       0x0000000000000000       0x12 /usr/local/ps3dev/ppu/lib/gcc/powerpc64-ps3-elf/4.5.2/../../../../powerpc64-ps3-elf/lib/libc.a(lib_a-callocr.o)
 .comment       0x0000000000000000       0x12 /usr/local/ps3dev/ppu/lib/gcc/powerpc64-ps3-elf/4.5.2/../../../../powerpc64-ps3-elf/lib/libc.a(lib_a-signal.o)
 .comment       0x0000000000000000       0x12 /usr/local/ps3dev/ppu/lib/gcc/powerpc64-ps3-elf/4.5.2/../../../../powerpc64-ps3-elf/lib/libsysbase.a(close.o)
 .comment       0x0000000000000000       0x12 /usr/local/ps3dev/ppu/lib/gcc/powerpc64-ps3-elf/4.5.2/../../../../powerpc64-ps3-elf/lib/libsysbase.a(sbrk.o)
 .comment       0x0000000000000000       0x12 /usr/local/ps3dev/ppu/lib/gcc/powerpc64-ps3-elf/4.5.2/../../../../powerpc64-ps3-elf/lib/libsysbase.a(_exit.o)
 .comment       0x0000000000000000       0x12 /usr/local/ps3dev/ppu/lib/gcc/powerpc64-ps3-elf/4.5.2/../../../../powerpc64-ps3-elf/lib/libsysbase.a(fstat.o)
 .comment       0x0000000000000000       0x12 /usr/local/ps3dev/ppu/lib/gcc/powerpc64-ps3-elf/4.5.2/../../../../powerpc64-ps3-elf/lib/libsysbase.a(isatty.o)
 .comment       0x0000000000000000       0x12 /usr/local/ps3dev/ppu/lib/gcc/powerpc64-ps3-elf/4.5.2/../../../../powerpc64-ps3-elf/lib/libsysbase.a(lseek.o)
 .comment       0x0000000000000000       0x12 /usr/local/ps3dev/ppu/lib/gcc/powerpc64-ps3-elf/4.5.2/../../../../powerpc64-ps3-elf/lib/libsysbase.a(read.o)
 .comment       0x0000000000000000       0x12 /usr/local/ps3dev/ppu/lib/gcc/powerpc64-ps3-elf/4.5.2/../../../../powerpc64-ps3-elf/lib/libsysbase.a(write.o)
 .comment       0x0000000000000000       0x12 /usr/local/ps3dev/ppu/lib/gcc/powerpc64-ps3-elf/4.5.2/../../../../powerpc64-ps3-elf/lib/libsysbase.a(lock.o)
 .comment       0x0000000000000000       0x12 /usr/local/ps3dev/ppu/lib/gcc/powerpc64-ps3-elf/4.5.2/../../../../powerpc64-ps3-elf/lib/libsysbase.a(getpid.o)
 .comment       0x0000000000000000       0x12 /usr/local/ps3dev/ppu/lib/gcc/powerpc64-ps3-elf/4.5.2/../../../../powerpc64-ps3-elf/lib/libsysbase.a(kill.o)
 .comment       0x0000000000000000       0x12 /usr/local/ps3dev/ppu/lib/gcc/powerpc64-ps3-elf/4.5.2/crtend.o

.debug
 *(.debug)

.line
 *(.line)

.debug_srcinfo
 *(.debug_srcinfo)

.debug_sfnames
 *(.debug_sfnames)

.debug_aranges  0x0000000000000000     0x1280
 *(.debug_aranges)
 .debug_aranges
                0x0000000000000000       0x40 /usr/local/ps3dev/ppu/lib/gcc/powerpc64-ps3-elf/4.5.2/../../../../powerpc64-ps3-elf/lib/libsysbase.a(sleep.o)
 .debug_aranges
                0x0000000000000040       0x30 /usr/local/ps3dev/ppu/lib/gcc/powerpc64-ps3-elf/4.5.2/../../../../powerpc64-ps3-elf/lib/libc.a(lib_a-atexit.o)
 .debug_aranges
                0x0000000000000070       0x30 /usr/local/ps3dev/ppu/lib/gcc/powerpc64-ps3-elf/4.5.2/../../../../powerpc64-ps3-elf/lib/libc.a(lib_a-errno.o)
 .debug_aranges
                0x00000000000000a0       0x30 /usr/local/ps3dev/ppu/lib/gcc/powerpc64-ps3-elf/4.5.2/../../../../powerpc64-ps3-elf/lib/libc.a(lib_a-exit.o)
 .debug_aranges
                0x00000000000000d0       0x30 /usr/local/ps3dev/ppu/lib/gcc/powerpc64-ps3-elf/4.5.2/../../../../powerpc64-ps3-elf/lib/libc.a(lib_a-getreent.o)
 .debug_aranges
                0x0000000000000100       0x30 /usr/local/ps3dev/ppu/lib/gcc/powerpc64-ps3-elf/4.5.2/../../../../powerpc64-ps3-elf/lib/libc.a(lib_a-malign.o)
 .debug_aranges
                0x0000000000000130       0x30 /usr/local/ps3dev/ppu/lib/gcc/powerpc64-ps3-elf/4.5.2/../../../../powerpc64-ps3-elf/lib/libc.a(lib_a-malignr.o)
 .debug_aranges
                0x0000000000000160       0x40 /usr/local/ps3dev/ppu/lib/gcc/powerpc64-ps3-elf/4.5.2/../../../../powerpc64-ps3-elf/lib/libc.a(lib_a-malloc.o)
 .debug_aranges
                0x00000000000001a0       0x30 /usr/local/ps3dev/ppu/lib/gcc/powerpc64-ps3-elf/4.5.2/../../../../powerpc64-ps3-elf/lib/libc.a(lib_a-mallocr.o)
 .debug_aranges
                0x00000000000001d0       0x30 /usr/local/ps3dev/ppu/lib/gcc/powerpc64-ps3-elf/4.5.2/../../../../powerpc64-ps3-elf/lib/libc.a(lib_a-memset.o)
 .debug_aranges
                0x0000000000000200       0x40 /usr/local/ps3dev/ppu/lib/gcc/powerpc64-ps3-elf/4.5.2/../../../../powerpc64-ps3-elf/lib/libc.a(lib_a-mlock.o)
 .debug_aranges
                0x0000000000000240       0x40 /usr/local/ps3dev/ppu/lib/gcc/powerpc64-ps3-elf/4.5.2/../../../../powerpc64-ps3-elf/lib/libc.a(lib_a-puts.o)
 .debug_aranges
                0x0000000000000280       0x40 /usr/local/ps3dev/ppu/lib/gcc/powerpc64-ps3-elf/4.5.2/../../../../powerpc64-ps3-elf/lib/libc.a(lib_a-sscanf.o)
 .debug_aranges
                0x00000000000002c0       0x70 /usr/local/ps3dev/ppu/lib/gcc/powerpc64-ps3-elf/4.5.2/../../../../powerpc64-ps3-elf/lib/libc.a(lib_a-stdio.o)
 .debug_aranges
                0x0000000000000330       0x30 /usr/local/ps3dev/ppu/lib/gcc/powerpc64-ps3-elf/4.5.2/../../../../powerpc64-ps3-elf/lib/libc.a(lib_a-strcasecmp.o)
 .debug_aranges
                0x0000000000000360       0x30 /usr/local/ps3dev/ppu/lib/gcc/powerpc64-ps3-elf/4.5.2/../../../../powerpc64-ps3-elf/lib/libc.a(lib_a-strlen.o)
 .debug_aranges
                0x0000000000000390       0x30 /usr/local/ps3dev/ppu/lib/gcc/powerpc64-ps3-elf/4.5.2/../../../../powerpc64-ps3-elf/lib/libc.a(lib_a-strncpy.o)
 .debug_aranges
                0x00000000000003c0       0x30 /usr/local/ps3dev/ppu/lib/gcc/powerpc64-ps3-elf/4.5.2/../../../../powerpc64-ps3-elf/lib/libc.a(lib_a-svfscanf.o)
 .debug_aranges
                0x00000000000003f0       0x30 /usr/local/ps3dev/ppu/lib/gcc/powerpc64-ps3-elf/4.5.2/../../../../powerpc64-ps3-elf/lib/libc.a(lib_a-__atexit.o)
 .debug_aranges
                0x0000000000000420       0x30 /usr/local/ps3dev/ppu/lib/gcc/powerpc64-ps3-elf/4.5.2/../../../../powerpc64-ps3-elf/lib/libc.a(lib_a-__call_atexit.o)
 .debug_aranges
                0x0000000000000450       0xf0 /usr/local/ps3dev/ppu/lib/gcc/powerpc64-ps3-elf/4.5.2/../../../../powerpc64-ps3-elf/lib/libc.a(lib_a-findfp.o)
 .debug_aranges
                0x0000000000000540       0x40 /usr/local/ps3dev/ppu/lib/gcc/powerpc64-ps3-elf/4.5.2/../../../../powerpc64-ps3-elf/lib/libc.a(lib_a-freer.o)
 .debug_aranges
                0x0000000000000580       0x30 /usr/local/ps3dev/ppu/lib/gcc/powerpc64-ps3-elf/4.5.2/../../../../powerpc64-ps3-elf/lib/libc.a(lib_a-fvwrite.o)
 .debug_aranges
                0x00000000000005b0       0x40 /usr/local/ps3dev/ppu/lib/gcc/powerpc64-ps3-elf/4.5.2/../../../../powerpc64-ps3-elf/lib/libc.a(lib_a-fwalk.o)
 .debug_aranges
                0x00000000000005f0       0x30 /usr/local/ps3dev/ppu/lib/gcc/powerpc64-ps3-elf/4.5.2/../../../../powerpc64-ps3-elf/lib/libc.a(lib_a-iswspace.o)
 .debug_aranges
                0x0000000000000620       0xa0 /usr/local/ps3dev/ppu/lib/gcc/powerpc64-ps3-elf/4.5.2/../../../../powerpc64-ps3-elf/lib/libc.a(lib_a-locale.o)
 .debug_aranges
                0x00000000000006c0       0x70 /usr/local/ps3dev/ppu/lib/gcc/powerpc64-ps3-elf/4.5.2/../../../../powerpc64-ps3-elf/lib/libc.a(lib_a-lock_recursive.o)
 .debug_aranges
                0x0000000000000730       0x40 /usr/local/ps3dev/ppu/lib/gcc/powerpc64-ps3-elf/4.5.2/../../../../powerpc64-ps3-elf/lib/libc.a(lib_a-mbrtowc.o)
 .debug_aranges
                0x0000000000000770       0x40 /usr/local/ps3dev/ppu/lib/gcc/powerpc64-ps3-elf/4.5.2/../../../../powerpc64-ps3-elf/lib/libc.a(lib_a-mbtowc_r.o)
 .debug_aranges
                0x00000000000007b0       0x30 /usr/local/ps3dev/ppu/lib/gcc/powerpc64-ps3-elf/4.5.2/../../../../powerpc64-ps3-elf/lib/libc.a(lib_a-memchr.o)
 .debug_aranges
                0x00000000000007e0       0x30 /usr/local/ps3dev/ppu/lib/gcc/powerpc64-ps3-elf/4.5.2/../../../../powerpc64-ps3-elf/lib/libc.a(lib_a-memcpy.o)
 .debug_aranges
                0x0000000000000810       0x30 /usr/local/ps3dev/ppu/lib/gcc/powerpc64-ps3-elf/4.5.2/../../../../powerpc64-ps3-elf/lib/libc.a(lib_a-memmove.o)
 .debug_aranges
                0x0000000000000840       0x30 /usr/local/ps3dev/ppu/lib/gcc/powerpc64-ps3-elf/4.5.2/../../../../powerpc64-ps3-elf/lib/libc.a(lib_a-reallocr.o)
 .debug_aranges
                0x0000000000000870       0x30 /usr/local/ps3dev/ppu/lib/gcc/powerpc64-ps3-elf/4.5.2/../../../../powerpc64-ps3-elf/lib/libc.a(lib_a-sccl.o)
 .debug_aranges
                0x00000000000008a0       0x30 /usr/local/ps3dev/ppu/lib/gcc/powerpc64-ps3-elf/4.5.2/../../../../powerpc64-ps3-elf/lib/libc.a(lib_a-sf_nan.o)
 .debug_aranges
                0x00000000000008d0       0x30 /usr/local/ps3dev/ppu/lib/gcc/powerpc64-ps3-elf/4.5.2/../../../../powerpc64-ps3-elf/lib/libc.a(lib_a-s_fpclassify.o)
 .debug_aranges
                0x0000000000000900       0x40 /usr/local/ps3dev/ppu/lib/gcc/powerpc64-ps3-elf/4.5.2/../../../../powerpc64-ps3-elf/lib/libc.a(lib_a-sprintf.o)
 .debug_aranges
                0x0000000000000940       0x30 /usr/local/ps3dev/ppu/lib/gcc/powerpc64-ps3-elf/4.5.2/../../../../powerpc64-ps3-elf/lib/libc.a(lib_a-strcmp.o)
 .debug_aranges
                0x0000000000000970       0x60 /usr/local/ps3dev/ppu/lib/gcc/powerpc64-ps3-elf/4.5.2/../../../../powerpc64-ps3-elf/lib/libc.a(lib_a-strtod.o)
 .debug_aranges
                0x00000000000009d0       0x30 /usr/local/ps3dev/ppu/lib/gcc/powerpc64-ps3-elf/4.5.2/../../../../powerpc64-ps3-elf/lib/libc.a(lib_a-strtoll_r.o)
 .debug_aranges
                0x0000000000000a00       0x40 /usr/local/ps3dev/ppu/lib/gcc/powerpc64-ps3-elf/4.5.2/../../../../powerpc64-ps3-elf/lib/libc.a(lib_a-strtol.o)
 .debug_aranges
                0x0000000000000a40       0x30 /usr/local/ps3dev/ppu/lib/gcc/powerpc64-ps3-elf/4.5.2/../../../../powerpc64-ps3-elf/lib/libc.a(lib_a-strtoull_r.o)
 .debug_aranges
                0x0000000000000a70       0x40 /usr/local/ps3dev/ppu/lib/gcc/powerpc64-ps3-elf/4.5.2/../../../../powerpc64-ps3-elf/lib/libc.a(lib_a-strtoul.o)
 .debug_aranges
                0x0000000000000ab0       0x60 /usr/local/ps3dev/ppu/lib/gcc/powerpc64-ps3-elf/4.5.2/../../../../powerpc64-ps3-elf/lib/libc.a(lib_a-svfiscanf.o)
 .debug_aranges
                0x0000000000000b10       0x30 /usr/local/ps3dev/ppu/lib/gcc/powerpc64-ps3-elf/4.5.2/../../../../powerpc64-ps3-elf/lib/libc.a(lib_a-svfprintf.o)
 .debug_aranges
                0x0000000000000b40       0x50 /usr/local/ps3dev/ppu/lib/gcc/powerpc64-ps3-elf/4.5.2/../../../../powerpc64-ps3-elf/lib/libc.a(lib_a-ungetc.o)
 .debug_aranges
                0x0000000000000b90       0x30 /usr/local/ps3dev/ppu/lib/gcc/powerpc64-ps3-elf/4.5.2/../../../../powerpc64-ps3-elf/lib/libc.a(lib_a-wsetup.o)
 .debug_aranges
                0x0000000000000bc0       0x40 /usr/local/ps3dev/ppu/lib/gcc/powerpc64-ps3-elf/4.5.2/../../../../powerpc64-ps3-elf/lib/libc.a(lib_a-dtoa.o)
 .debug_aranges
                0x0000000000000c00       0x40 /usr/local/ps3dev/ppu/lib/gcc/powerpc64-ps3-elf/4.5.2/../../../../powerpc64-ps3-elf/lib/libc.a(lib_a-fclose.o)
 .debug_aranges
                0x0000000000000c40       0x40 /usr/local/ps3dev/ppu/lib/gcc/powerpc64-ps3-elf/4.5.2/../../../../powerpc64-ps3-elf/lib/libc.a(lib_a-fflush.o)
 .debug_aranges
                0x0000000000000c80       0x50 /usr/local/ps3dev/ppu/lib/gcc/powerpc64-ps3-elf/4.5.2/../../../../powerpc64-ps3-elf/lib/libc.a(lib_a-gdtoa-gethex.o)
 .debug_aranges
                0x0000000000000cd0       0x30 /usr/local/ps3dev/ppu/lib/gcc/powerpc64-ps3-elf/4.5.2/../../../../powerpc64-ps3-elf/lib/libc.a(lib_a-gdtoa-hexnan.o)
 .debug_aranges
                0x0000000000000d00       0x40 /usr/local/ps3dev/ppu/lib/gcc/powerpc64-ps3-elf/4.5.2/../../../../powerpc64-ps3-elf/lib/libc.a(lib_a-lock_internal.o)
 .debug_aranges
                0x0000000000000d40       0x30 /usr/local/ps3dev/ppu/lib/gcc/powerpc64-ps3-elf/4.5.2/../../../../powerpc64-ps3-elf/lib/libc.a(lib_a-makebuf.o)
 .debug_aranges
                0x0000000000000d70      0x150 /usr/local/ps3dev/ppu/lib/gcc/powerpc64-ps3-elf/4.5.2/../../../../powerpc64-ps3-elf/lib/libc.a(lib_a-mprec.o)
 .debug_aranges
                0x0000000000000ec0       0x30 /usr/local/ps3dev/ppu/lib/gcc/powerpc64-ps3-elf/4.5.2/../../../../powerpc64-ps3-elf/lib/libc.a(lib_a-strncmp.o)
 .debug_aranges
                0x0000000000000ef0       0x40 /usr/local/ps3dev/ppu/lib/gcc/powerpc64-ps3-elf/4.5.2/../../../../powerpc64-ps3-elf/lib/libc.a(lib_a-svfiprintf.o)
 .debug_aranges
                0x0000000000000f30       0x30 /usr/local/ps3dev/ppu/lib/gcc/powerpc64-ps3-elf/4.5.2/../../../../powerpc64-ps3-elf/lib/libc.a(lib_a-abort.o)
 .debug_aranges
                0x0000000000000f60       0x30 /usr/local/ps3dev/ppu/lib/gcc/powerpc64-ps3-elf/4.5.2/../../../../powerpc64-ps3-elf/lib/libc.a(lib_a-callocr.o)
 .debug_aranges
                0x0000000000000f90       0xa0 /usr/local/ps3dev/ppu/lib/gcc/powerpc64-ps3-elf/4.5.2/../../../../powerpc64-ps3-elf/lib/libc.a(lib_a-signal.o)
 .debug_aranges
                0x0000000000001030       0x30 /usr/local/ps3dev/ppu/lib/gcc/powerpc64-ps3-elf/4.5.2/../../../../powerpc64-ps3-elf/lib/libsysbase.a(close.o)
 .debug_aranges
                0x0000000000001060       0x30 /usr/local/ps3dev/ppu/lib/gcc/powerpc64-ps3-elf/4.5.2/../../../../powerpc64-ps3-elf/lib/libsysbase.a(sbrk.o)
 .debug_aranges
                0x0000000000001090       0x30 /usr/local/ps3dev/ppu/lib/gcc/powerpc64-ps3-elf/4.5.2/../../../../powerpc64-ps3-elf/lib/libsysbase.a(_exit.o)
 .debug_aranges
                0x00000000000010c0       0x30 /usr/local/ps3dev/ppu/lib/gcc/powerpc64-ps3-elf/4.5.2/../../../../powerpc64-ps3-elf/lib/libsysbase.a(fstat.o)
 .debug_aranges
                0x00000000000010f0       0x30 /usr/local/ps3dev/ppu/lib/gcc/powerpc64-ps3-elf/4.5.2/../../../../powerpc64-ps3-elf/lib/libsysbase.a(isatty.o)
 .debug_aranges
                0x0000000000001120       0x30 /usr/local/ps3dev/ppu/lib/gcc/powerpc64-ps3-elf/4.5.2/../../../../powerpc64-ps3-elf/lib/libsysbase.a(lseek.o)
 .debug_aranges
                0x0000000000001150       0x30 /usr/local/ps3dev/ppu/lib/gcc/powerpc64-ps3-elf/4.5.2/../../../../powerpc64-ps3-elf/lib/libsysbase.a(read.o)
 .debug_aranges
                0x0000000000001180       0x30 /usr/local/ps3dev/ppu/lib/gcc/powerpc64-ps3-elf/4.5.2/../../../../powerpc64-ps3-elf/lib/libsysbase.a(write.o)
 .debug_aranges
                0x00000000000011b0       0x70 /usr/local/ps3dev/ppu/lib/gcc/powerpc64-ps3-elf/4.5.2/../../../../powerpc64-ps3-elf/lib/libsysbase.a(lock.o)
 .debug_aranges
                0x0000000000001220       0x30 /usr/local/ps3dev/ppu/lib/gcc/powerpc64-ps3-elf/4.5.2/../../../../powerpc64-ps3-elf/lib/libsysbase.a(getpid.o)
 .debug_aranges
                0x0000000000001250       0x30 /usr/local/ps3dev/ppu/lib/gcc/powerpc64-ps3-elf/4.5.2/../../../../powerpc64-ps3-elf/lib/libsysbase.a(kill.o)

.debug_pubnames
                0x0000000000000000      0xfc2
 *(.debug_pubnames)
 .debug_pubnames
                0x0000000000000000       0x21 /usr/local/ps3dev/ppu/lib/gcc/powerpc64-ps3-elf/4.5.2/../../../../powerpc64-ps3-elf/lib/libsysbase.a(syscalls.o)
 .debug_pubnames
                0x0000000000000021       0x27 /usr/local/ps3dev/ppu/lib/gcc/powerpc64-ps3-elf/4.5.2/../../../../powerpc64-ps3-elf/lib/libsysbase.a(sleep.o)
 .debug_pubnames
                0x0000000000000048       0x1d /usr/local/ps3dev/ppu/lib/gcc/powerpc64-ps3-elf/4.5.2/../../../../powerpc64-ps3-elf/lib/libc.a(lib_a-atexit.o)
 .debug_pubnames
                0x0000000000000065       0x1e /usr/local/ps3dev/ppu/lib/gcc/powerpc64-ps3-elf/4.5.2/../../../../powerpc64-ps3-elf/lib/libc.a(lib_a-errno.o)
 .debug_pubnames
                0x0000000000000083       0x1b /usr/local/ps3dev/ppu/lib/gcc/powerpc64-ps3-elf/4.5.2/../../../../powerpc64-ps3-elf/lib/libc.a(lib_a-exit.o)
 .debug_pubnames
                0x000000000000009e       0x21 /usr/local/ps3dev/ppu/lib/gcc/powerpc64-ps3-elf/4.5.2/../../../../powerpc64-ps3-elf/lib/libc.a(lib_a-getreent.o)
 .debug_pubnames
                0x00000000000000bf       0x39 /usr/local/ps3dev/ppu/lib/gcc/powerpc64-ps3-elf/4.5.2/../../../../powerpc64-ps3-elf/lib/libc.a(lib_a-impure.o)
 .debug_pubnames
                0x00000000000000f8       0x1f /usr/local/ps3dev/ppu/lib/gcc/powerpc64-ps3-elf/4.5.2/../../../../powerpc64-ps3-elf/lib/libc.a(lib_a-malign.o)
 .debug_pubnames
                0x0000000000000117       0x22 /usr/local/ps3dev/ppu/lib/gcc/powerpc64-ps3-elf/4.5.2/../../../../powerpc64-ps3-elf/lib/libc.a(lib_a-malignr.o)
 .debug_pubnames
                0x0000000000000139       0x26 /usr/local/ps3dev/ppu/lib/gcc/powerpc64-ps3-elf/4.5.2/../../../../powerpc64-ps3-elf/lib/libc.a(lib_a-malloc.o)
 .debug_pubnames
                0x000000000000015f       0xce /usr/local/ps3dev/ppu/lib/gcc/powerpc64-ps3-elf/4.5.2/../../../../powerpc64-ps3-elf/lib/libc.a(lib_a-mallocr.o)
 .debug_pubnames
                0x000000000000022d       0x1d /usr/local/ps3dev/ppu/lib/gcc/powerpc64-ps3-elf/4.5.2/../../../../powerpc64-ps3-elf/lib/libc.a(lib_a-memset.o)
 .debug_pubnames
                0x000000000000024a       0x38 /usr/local/ps3dev/ppu/lib/gcc/powerpc64-ps3-elf/4.5.2/../../../../powerpc64-ps3-elf/lib/libc.a(lib_a-mlock.o)
 .debug_pubnames
                0x0000000000000282       0x27 /usr/local/ps3dev/ppu/lib/gcc/powerpc64-ps3-elf/4.5.2/../../../../powerpc64-ps3-elf/lib/libc.a(lib_a-puts.o)
 .debug_pubnames
                0x00000000000002a9       0x2b /usr/local/ps3dev/ppu/lib/gcc/powerpc64-ps3-elf/4.5.2/../../../../powerpc64-ps3-elf/lib/libc.a(lib_a-sscanf.o)
 .debug_pubnames
                0x00000000000002d4       0x53 /usr/local/ps3dev/ppu/lib/gcc/powerpc64-ps3-elf/4.5.2/../../../../powerpc64-ps3-elf/lib/libc.a(lib_a-stdio.o)
 .debug_pubnames
                0x0000000000000327       0x21 /usr/local/ps3dev/ppu/lib/gcc/powerpc64-ps3-elf/4.5.2/../../../../powerpc64-ps3-elf/lib/libc.a(lib_a-strcasecmp.o)
 .debug_pubnames
                0x0000000000000348       0x1d /usr/local/ps3dev/ppu/lib/gcc/powerpc64-ps3-elf/4.5.2/../../../../powerpc64-ps3-elf/lib/libc.a(lib_a-strlen.o)
 .debug_pubnames
                0x0000000000000365       0x1e /usr/local/ps3dev/ppu/lib/gcc/powerpc64-ps3-elf/4.5.2/../../../../powerpc64-ps3-elf/lib/libc.a(lib_a-strncpy.o)
 .debug_pubnames
                0x0000000000000383       0x24 /usr/local/ps3dev/ppu/lib/gcc/powerpc64-ps3-elf/4.5.2/../../../../powerpc64-ps3-elf/lib/libc.a(lib_a-svfscanf.o)
 .debug_pubnames
                0x00000000000003a7       0x3c /usr/local/ps3dev/ppu/lib/gcc/powerpc64-ps3-elf/4.5.2/../../../../powerpc64-ps3-elf/lib/libc.a(lib_a-__atexit.o)
 .debug_pubnames
                0x00000000000003e3       0x27 /usr/local/ps3dev/ppu/lib/gcc/powerpc64-ps3-elf/4.5.2/../../../../powerpc64-ps3-elf/lib/libc.a(lib_a-__call_atexit.o)
 .debug_pubnames
                0x000000000000040a       0x30 /usr/local/ps3dev/ppu/lib/gcc/powerpc64-ps3-elf/4.5.2/../../../../powerpc64-ps3-elf/lib/libc.a(lib_a-ctype_.o)
 .debug_pubnames
                0x000000000000043a       0xdb /usr/local/ps3dev/ppu/lib/gcc/powerpc64-ps3-elf/4.5.2/../../../../powerpc64-ps3-elf/lib/libc.a(lib_a-findfp.o)
 .debug_pubnames
                0x0000000000000515       0x31 /usr/local/ps3dev/ppu/lib/gcc/powerpc64-ps3-elf/4.5.2/../../../../powerpc64-ps3-elf/lib/libc.a(lib_a-freer.o)
 .debug_pubnames
                0x0000000000000546       0x23 /usr/local/ps3dev/ppu/lib/gcc/powerpc64-ps3-elf/4.5.2/../../../../powerpc64-ps3-elf/lib/libc.a(lib_a-fvwrite.o)
 .debug_pubnames
                0x0000000000000569       0x2e /usr/local/ps3dev/ppu/lib/gcc/powerpc64-ps3-elf/4.5.2/../../../../powerpc64-ps3-elf/lib/libc.a(lib_a-fwalk.o)
 .debug_pubnames
                0x0000000000000597       0x1f /usr/local/ps3dev/ppu/lib/gcc/powerpc64-ps3-elf/4.5.2/../../../../powerpc64-ps3-elf/lib/libc.a(lib_a-iswspace.o)
 .debug_pubnames
                0x00000000000005b6       0xfa /usr/local/ps3dev/ppu/lib/gcc/powerpc64-ps3-elf/4.5.2/../../../../powerpc64-ps3-elf/lib/libc.a(lib_a-locale.o)
 .debug_pubnames
                0x00000000000006b0       0xbb /usr/local/ps3dev/ppu/lib/gcc/powerpc64-ps3-elf/4.5.2/../../../../powerpc64-ps3-elf/lib/libc.a(lib_a-lock_recursive.o)
 .debug_pubnames
                0x000000000000076b       0x2d /usr/local/ps3dev/ppu/lib/gcc/powerpc64-ps3-elf/4.5.2/../../../../powerpc64-ps3-elf/lib/libc.a(lib_a-mbrtowc.o)
 .debug_pubnames
                0x0000000000000798       0x40 /usr/local/ps3dev/ppu/lib/gcc/powerpc64-ps3-elf/4.5.2/../../../../powerpc64-ps3-elf/lib/libc.a(lib_a-mbtowc_r.o)
 .debug_pubnames
                0x00000000000007d8       0x1d /usr/local/ps3dev/ppu/lib/gcc/powerpc64-ps3-elf/4.5.2/../../../../powerpc64-ps3-elf/lib/libc.a(lib_a-memchr.o)
 .debug_pubnames
                0x00000000000007f5       0x1d /usr/local/ps3dev/ppu/lib/gcc/powerpc64-ps3-elf/4.5.2/../../../../powerpc64-ps3-elf/lib/libc.a(lib_a-memcpy.o)
 .debug_pubnames
                0x0000000000000812       0x1e /usr/local/ps3dev/ppu/lib/gcc/powerpc64-ps3-elf/4.5.2/../../../../powerpc64-ps3-elf/lib/libc.a(lib_a-memmove.o)
 .debug_pubnames
                0x0000000000000830       0x21 /usr/local/ps3dev/ppu/lib/gcc/powerpc64-ps3-elf/4.5.2/../../../../powerpc64-ps3-elf/lib/libc.a(lib_a-reallocr.o)
 .debug_pubnames
                0x0000000000000851       0x1d /usr/local/ps3dev/ppu/lib/gcc/powerpc64-ps3-elf/4.5.2/../../../../powerpc64-ps3-elf/lib/libc.a(lib_a-sccl.o)
 .debug_pubnames
                0x000000000000086e       0x1b /usr/local/ps3dev/ppu/lib/gcc/powerpc64-ps3-elf/4.5.2/../../../../powerpc64-ps3-elf/lib/libc.a(lib_a-sf_nan.o)
 .debug_pubnames
                0x0000000000000889       0x24 /usr/local/ps3dev/ppu/lib/gcc/powerpc64-ps3-elf/4.5.2/../../../../powerpc64-ps3-elf/lib/libc.a(lib_a-s_fpclassify.o)
 .debug_pubnames
                0x00000000000008ad       0x2d /usr/local/ps3dev/ppu/lib/gcc/powerpc64-ps3-elf/4.5.2/../../../../powerpc64-ps3-elf/lib/libc.a(lib_a-sprintf.o)
 .debug_pubnames
                0x00000000000008da       0x1d /usr/local/ps3dev/ppu/lib/gcc/powerpc64-ps3-elf/4.5.2/../../../../powerpc64-ps3-elf/lib/libc.a(lib_a-strcmp.o)
 .debug_pubnames
                0x00000000000008f7       0x36 /usr/local/ps3dev/ppu/lib/gcc/powerpc64-ps3-elf/4.5.2/../../../../powerpc64-ps3-elf/lib/libc.a(lib_a-strtod.o)
 .debug_pubnames
                0x000000000000092d       0x21 /usr/local/ps3dev/ppu/lib/gcc/powerpc64-ps3-elf/4.5.2/../../../../powerpc64-ps3-elf/lib/libc.a(lib_a-strtoll_r.o)
 .debug_pubnames
                0x000000000000094e       0x2b /usr/local/ps3dev/ppu/lib/gcc/powerpc64-ps3-elf/4.5.2/../../../../powerpc64-ps3-elf/lib/libc.a(lib_a-strtol.o)
 .debug_pubnames
                0x0000000000000979       0x22 /usr/local/ps3dev/ppu/lib/gcc/powerpc64-ps3-elf/4.5.2/../../../../powerpc64-ps3-elf/lib/libc.a(lib_a-strtoull_r.o)
 .debug_pubnames
                0x000000000000099b       0x2d /usr/local/ps3dev/ppu/lib/gcc/powerpc64-ps3-elf/4.5.2/../../../../powerpc64-ps3-elf/lib/libc.a(lib_a-strtoul.o)
 .debug_pubnames
                0x00000000000009c8       0x53 /usr/local/ps3dev/ppu/lib/gcc/powerpc64-ps3-elf/4.5.2/../../../../powerpc64-ps3-elf/lib/libc.a(lib_a-svfiscanf.o)
 .debug_pubnames
                0x0000000000000a1b       0x23 /usr/local/ps3dev/ppu/lib/gcc/powerpc64-ps3-elf/4.5.2/../../../../powerpc64-ps3-elf/lib/libc.a(lib_a-svfprintf.o)
 .debug_pubnames
                0x0000000000000a3e       0x39 /usr/local/ps3dev/ppu/lib/gcc/powerpc64-ps3-elf/4.5.2/../../../../powerpc64-ps3-elf/lib/libc.a(lib_a-ungetc.o)
 .debug_pubnames
                0x0000000000000a77       0x22 /usr/local/ps3dev/ppu/lib/gcc/powerpc64-ps3-elf/4.5.2/../../../../powerpc64-ps3-elf/lib/libc.a(lib_a-wsetup.o)
 .debug_pubnames
                0x0000000000000a99       0x1e /usr/local/ps3dev/ppu/lib/gcc/powerpc64-ps3-elf/4.5.2/../../../../powerpc64-ps3-elf/lib/libc.a(lib_a-dtoa.o)
 .debug_pubnames
                0x0000000000000ab7       0x2b /usr/local/ps3dev/ppu/lib/gcc/powerpc64-ps3-elf/4.5.2/../../../../powerpc64-ps3-elf/lib/libc.a(lib_a-fclose.o)
 .debug_pubnames
                0x0000000000000ae2       0x2b /usr/local/ps3dev/ppu/lib/gcc/powerpc64-ps3-elf/4.5.2/../../../../powerpc64-ps3-elf/lib/libc.a(lib_a-fflush.o)
 .debug_pubnames
                0x0000000000000b0d       0x3e /usr/local/ps3dev/ppu/lib/gcc/powerpc64-ps3-elf/4.5.2/../../../../powerpc64-ps3-elf/lib/libc.a(lib_a-gdtoa-gethex.o)
 .debug_pubnames
                0x0000000000000b4b       0x1f /usr/local/ps3dev/ppu/lib/gcc/powerpc64-ps3-elf/4.5.2/../../../../powerpc64-ps3-elf/lib/libc.a(lib_a-gdtoa-hexnan.o)
 .debug_pubnames
                0x0000000000000b6a       0x30 /usr/local/ps3dev/ppu/lib/gcc/powerpc64-ps3-elf/4.5.2/../../../../powerpc64-ps3-elf/lib/libc.a(lib_a-lock_internal.o)
 .debug_pubnames
                0x0000000000000b9a       0x23 /usr/local/ps3dev/ppu/lib/gcc/powerpc64-ps3-elf/4.5.2/../../../../powerpc64-ps3-elf/lib/libc.a(lib_a-makebuf.o)
 .debug_pubnames
                0x0000000000000bbd      0x13a /usr/local/ps3dev/ppu/lib/gcc/powerpc64-ps3-elf/4.5.2/../../../../powerpc64-ps3-elf/lib/libc.a(lib_a-mprec.o)
 .debug_pubnames
                0x0000000000000cf7       0x1e /usr/local/ps3dev/ppu/lib/gcc/powerpc64-ps3-elf/4.5.2/../../../../powerpc64-ps3-elf/lib/libc.a(lib_a-strncmp.o)
 .debug_pubnames
                0x0000000000000d15       0x34 /usr/local/ps3dev/ppu/lib/gcc/powerpc64-ps3-elf/4.5.2/../../../../powerpc64-ps3-elf/lib/libc.a(lib_a-svfiprintf.o)
 .debug_pubnames
                0x0000000000000d49       0x1c /usr/local/ps3dev/ppu/lib/gcc/powerpc64-ps3-elf/4.5.2/../../../../powerpc64-ps3-elf/lib/libc.a(lib_a-abort.o)
 .debug_pubnames
                0x0000000000000d65       0x20 /usr/local/ps3dev/ppu/lib/gcc/powerpc64-ps3-elf/4.5.2/../../../../powerpc64-ps3-elf/lib/libc.a(lib_a-callocr.o)
 .debug_pubnames
                0x0000000000000d85       0x86 /usr/local/ps3dev/ppu/lib/gcc/powerpc64-ps3-elf/4.5.2/../../../../powerpc64-ps3-elf/lib/libc.a(lib_a-signal.o)
 .debug_pubnames
                0x0000000000000e0b       0x1f /usr/local/ps3dev/ppu/lib/gcc/powerpc64-ps3-elf/4.5.2/../../../../powerpc64-ps3-elf/lib/libsysbase.a(close.o)
 .debug_pubnames
                0x0000000000000e2a       0x1e /usr/local/ps3dev/ppu/lib/gcc/powerpc64-ps3-elf/4.5.2/../../../../powerpc64-ps3-elf/lib/libsysbase.a(sbrk.o)
 .debug_pubnames
                0x0000000000000e48       0x1c /usr/local/ps3dev/ppu/lib/gcc/powerpc64-ps3-elf/4.5.2/../../../../powerpc64-ps3-elf/lib/libsysbase.a(_exit.o)
 .debug_pubnames
                0x0000000000000e64       0x1f /usr/local/ps3dev/ppu/lib/gcc/powerpc64-ps3-elf/4.5.2/../../../../powerpc64-ps3-elf/lib/libsysbase.a(fstat.o)
 .debug_pubnames
                0x0000000000000e83       0x20 /usr/local/ps3dev/ppu/lib/gcc/powerpc64-ps3-elf/4.5.2/../../../../powerpc64-ps3-elf/lib/libsysbase.a(isatty.o)
 .debug_pubnames
                0x0000000000000ea3       0x1f /usr/local/ps3dev/ppu/lib/gcc/powerpc64-ps3-elf/4.5.2/../../../../powerpc64-ps3-elf/lib/libsysbase.a(lseek.o)
 .debug_pubnames
                0x0000000000000ec2       0x1e /usr/local/ps3dev/ppu/lib/gcc/powerpc64-ps3-elf/4.5.2/../../../../powerpc64-ps3-elf/lib/libsysbase.a(read.o)
 .debug_pubnames
                0x0000000000000ee0       0x1f /usr/local/ps3dev/ppu/lib/gcc/powerpc64-ps3-elf/4.5.2/../../../../powerpc64-ps3-elf/lib/libsysbase.a(write.o)
 .debug_pubnames
                0x0000000000000eff       0x85 /usr/local/ps3dev/ppu/lib/gcc/powerpc64-ps3-elf/4.5.2/../../../../powerpc64-ps3-elf/lib/libsysbase.a(lock.o)
 .debug_pubnames
                0x0000000000000f84       0x20 /usr/local/ps3dev/ppu/lib/gcc/powerpc64-ps3-elf/4.5.2/../../../../powerpc64-ps3-elf/lib/libsysbase.a(getpid.o)
 .debug_pubnames
                0x0000000000000fa4       0x1e /usr/local/ps3dev/ppu/lib/gcc/powerpc64-ps3-elf/4.5.2/../../../../powerpc64-ps3-elf/lib/libsysbase.a(kill.o)

.debug_info     0x0000000000000000    0x3064b
 *(.debug_info .gnu.linkonce.wi.*)
 .debug_info    0x0000000000000000     0x1535 /usr/local/ps3dev/ppu/lib/gcc/powerpc64-ps3-elf/4.5.2/../../../../powerpc64-ps3-elf/lib/libsysbase.a(syscalls.o)
 .debug_info    0x0000000000001535     0x15c1 /usr/local/ps3dev/ppu/lib/gcc/powerpc64-ps3-elf/4.5.2/../../../../powerpc64-ps3-elf/lib/libsysbase.a(sleep.o)
 .debug_info    0x0000000000002af6       0xd6 /usr/local/ps3dev/ppu/lib/gcc/powerpc64-ps3-elf/4.5.2/../../../../powerpc64-ps3-elf/lib/libc.a(lib_a-atexit.o)
 .debug_info    0x0000000000002bcc       0xa6 /usr/local/ps3dev/ppu/lib/gcc/powerpc64-ps3-elf/4.5.2/../../../../powerpc64-ps3-elf/lib/libc.a(lib_a-errno.o)
 .debug_info    0x0000000000002c72      0xa09 /usr/local/ps3dev/ppu/lib/gcc/powerpc64-ps3-elf/4.5.2/../../../../powerpc64-ps3-elf/lib/libc.a(lib_a-exit.o)
 .debug_info    0x000000000000367b      0xa2c /usr/local/ps3dev/ppu/lib/gcc/powerpc64-ps3-elf/4.5.2/../../../../powerpc64-ps3-elf/lib/libc.a(lib_a-getreent.o)
 .debug_info    0x00000000000040a7      0x9fb /usr/local/ps3dev/ppu/lib/gcc/powerpc64-ps3-elf/4.5.2/../../../../powerpc64-ps3-elf/lib/libc.a(lib_a-impure.o)
 .debug_info    0x0000000000004aa2       0xcc /usr/local/ps3dev/ppu/lib/gcc/powerpc64-ps3-elf/4.5.2/../../../../powerpc64-ps3-elf/lib/libc.a(lib_a-malign.o)
 .debug_info    0x0000000000004b6e      0xafa /usr/local/ps3dev/ppu/lib/gcc/powerpc64-ps3-elf/4.5.2/../../../../powerpc64-ps3-elf/lib/libc.a(lib_a-malignr.o)
 .debug_info    0x0000000000005668       0xee /usr/local/ps3dev/ppu/lib/gcc/powerpc64-ps3-elf/4.5.2/../../../../powerpc64-ps3-elf/lib/libc.a(lib_a-malloc.o)
 .debug_info    0x0000000000005756      0xe20 /usr/local/ps3dev/ppu/lib/gcc/powerpc64-ps3-elf/4.5.2/../../../../powerpc64-ps3-elf/lib/libc.a(lib_a-mallocr.o)
 .debug_info    0x0000000000006576      0x129 /usr/local/ps3dev/ppu/lib/gcc/powerpc64-ps3-elf/4.5.2/../../../../powerpc64-ps3-elf/lib/libc.a(lib_a-memset.o)
 .debug_info    0x000000000000669f      0xa2c /usr/local/ps3dev/ppu/lib/gcc/powerpc64-ps3-elf/4.5.2/../../../../powerpc64-ps3-elf/lib/libc.a(lib_a-mlock.o)
 .debug_info    0x00000000000070cb      0xada /usr/local/ps3dev/ppu/lib/gcc/powerpc64-ps3-elf/4.5.2/../../../../powerpc64-ps3-elf/lib/libc.a(lib_a-puts.o)
 .debug_info    0x0000000000007ba5      0xad1 /usr/local/ps3dev/ppu/lib/gcc/powerpc64-ps3-elf/4.5.2/../../../../powerpc64-ps3-elf/lib/libc.a(lib_a-sscanf.o)
 .debug_info    0x0000000000008676      0xbeb /usr/local/ps3dev/ppu/lib/gcc/powerpc64-ps3-elf/4.5.2/../../../../powerpc64-ps3-elf/lib/libc.a(lib_a-stdio.o)
 .debug_info    0x0000000000009261      0x188 /usr/local/ps3dev/ppu/lib/gcc/powerpc64-ps3-elf/4.5.2/../../../../powerpc64-ps3-elf/lib/libc.a(lib_a-strcasecmp.o)
 .debug_info    0x00000000000093e9       0xed /usr/local/ps3dev/ppu/lib/gcc/powerpc64-ps3-elf/4.5.2/../../../../powerpc64-ps3-elf/lib/libc.a(lib_a-strlen.o)
 .debug_info    0x00000000000094d6      0x138 /usr/local/ps3dev/ppu/lib/gcc/powerpc64-ps3-elf/4.5.2/../../../../powerpc64-ps3-elf/lib/libc.a(lib_a-strncpy.o)
 .debug_info    0x000000000000960e      0xed2 /usr/local/ps3dev/ppu/lib/gcc/powerpc64-ps3-elf/4.5.2/../../../../powerpc64-ps3-elf/lib/libc.a(lib_a-svfscanf.o)
 .debug_info    0x000000000000a4e0      0xa9b /usr/local/ps3dev/ppu/lib/gcc/powerpc64-ps3-elf/4.5.2/../../../../powerpc64-ps3-elf/lib/libc.a(lib_a-__atexit.o)
 .debug_info    0x000000000000af7b      0xaa9 /usr/local/ps3dev/ppu/lib/gcc/powerpc64-ps3-elf/4.5.2/../../../../powerpc64-ps3-elf/lib/libc.a(lib_a-__call_atexit.o)
 .debug_info    0x000000000000ba24       0x9b /usr/local/ps3dev/ppu/lib/gcc/powerpc64-ps3-elf/4.5.2/../../../../powerpc64-ps3-elf/lib/libc.a(lib_a-ctype_.o)
 .debug_info    0x000000000000babf      0xde2 /usr/local/ps3dev/ppu/lib/gcc/powerpc64-ps3-elf/4.5.2/../../../../powerpc64-ps3-elf/lib/libc.a(lib_a-findfp.o)
 .debug_info    0x000000000000c8a1      0xcdd /usr/local/ps3dev/ppu/lib/gcc/powerpc64-ps3-elf/4.5.2/../../../../powerpc64-ps3-elf/lib/libc.a(lib_a-freer.o)
 .debug_info    0x000000000000d57e      0xb4c /usr/local/ps3dev/ppu/lib/gcc/powerpc64-ps3-elf/4.5.2/../../../../powerpc64-ps3-elf/lib/libc.a(lib_a-fvwrite.o)
 .debug_info    0x000000000000e0ca      0xbd9 /usr/local/ps3dev/ppu/lib/gcc/powerpc64-ps3-elf/4.5.2/../../../../powerpc64-ps3-elf/lib/libc.a(lib_a-fwalk.o)
 .debug_info    0x000000000000eca3       0xe2 /usr/local/ps3dev/ppu/lib/gcc/powerpc64-ps3-elf/4.5.2/../../../../powerpc64-ps3-elf/lib/libc.a(lib_a-iswspace.o)
 .debug_info    0x000000000000ed85      0xd65 /usr/local/ps3dev/ppu/lib/gcc/powerpc64-ps3-elf/4.5.2/../../../../powerpc64-ps3-elf/lib/libc.a(lib_a-locale.o)
 .debug_info    0x000000000000faea      0x26e /usr/local/ps3dev/ppu/lib/gcc/powerpc64-ps3-elf/4.5.2/../../../../powerpc64-ps3-elf/lib/libc.a(lib_a-lock_recursive.o)
 .debug_info    0x000000000000fd58      0xb15 /usr/local/ps3dev/ppu/lib/gcc/powerpc64-ps3-elf/4.5.2/../../../../powerpc64-ps3-elf/lib/libc.a(lib_a-mbrtowc.o)
 .debug_info    0x000000000001086d      0xb2c /usr/local/ps3dev/ppu/lib/gcc/powerpc64-ps3-elf/4.5.2/../../../../powerpc64-ps3-elf/lib/libc.a(lib_a-mbtowc_r.o)
 .debug_info    0x0000000000011399      0x139 /usr/local/ps3dev/ppu/lib/gcc/powerpc64-ps3-elf/4.5.2/../../../../powerpc64-ps3-elf/lib/libc.a(lib_a-memchr.o)
 .debug_info    0x00000000000114d2      0x141 /usr/local/ps3dev/ppu/lib/gcc/powerpc64-ps3-elf/4.5.2/../../../../powerpc64-ps3-elf/lib/libc.a(lib_a-memcpy.o)
 .debug_info    0x0000000000011613      0x141 /usr/local/ps3dev/ppu/lib/gcc/powerpc64-ps3-elf/4.5.2/../../../../powerpc64-ps3-elf/lib/libc.a(lib_a-memmove.o)
 .debug_info    0x0000000000011754      0xcb5 /usr/local/ps3dev/ppu/lib/gcc/powerpc64-ps3-elf/4.5.2/../../../../powerpc64-ps3-elf/lib/libc.a(lib_a-reallocr.o)
 .debug_info    0x0000000000012409      0x10f /usr/local/ps3dev/ppu/lib/gcc/powerpc64-ps3-elf/4.5.2/../../../../powerpc64-ps3-elf/lib/libc.a(lib_a-sccl.o)
 .debug_info    0x0000000000012518       0xdc /usr/local/ps3dev/ppu/lib/gcc/powerpc64-ps3-elf/4.5.2/../../../../powerpc64-ps3-elf/lib/libc.a(lib_a-sf_nan.o)
 .debug_info    0x00000000000125f4      0x150 /usr/local/ps3dev/ppu/lib/gcc/powerpc64-ps3-elf/4.5.2/../../../../powerpc64-ps3-elf/lib/libc.a(lib_a-s_fpclassify.o)
 .debug_info    0x0000000000012744      0xad1 /usr/local/ps3dev/ppu/lib/gcc/powerpc64-ps3-elf/4.5.2/../../../../powerpc64-ps3-elf/lib/libc.a(lib_a-sprintf.o)
 .debug_info    0x0000000000013215       0xed /usr/local/ps3dev/ppu/lib/gcc/powerpc64-ps3-elf/4.5.2/../../../../powerpc64-ps3-elf/lib/libc.a(lib_a-strcmp.o)
 .debug_info    0x0000000000013302     0x107f /usr/local/ps3dev/ppu/lib/gcc/powerpc64-ps3-elf/4.5.2/../../../../powerpc64-ps3-elf/lib/libc.a(lib_a-strtod.o)
 .debug_info    0x0000000000014381      0xaa6 /usr/local/ps3dev/ppu/lib/gcc/powerpc64-ps3-elf/4.5.2/../../../../powerpc64-ps3-elf/lib/libc.a(lib_a-strtoll_r.o)
 .debug_info    0x0000000000014e27      0xaf7 /usr/local/ps3dev/ppu/lib/gcc/powerpc64-ps3-elf/4.5.2/../../../../powerpc64-ps3-elf/lib/libc.a(lib_a-strtol.o)
 .debug_info    0x000000000001591e      0xaa6 /usr/local/ps3dev/ppu/lib/gcc/powerpc64-ps3-elf/4.5.2/../../../../powerpc64-ps3-elf/lib/libc.a(lib_a-strtoull_r.o)
 .debug_info    0x00000000000163c4      0xaf7 /usr/local/ps3dev/ppu/lib/gcc/powerpc64-ps3-elf/4.5.2/../../../../powerpc64-ps3-elf/lib/libc.a(lib_a-strtoul.o)
 .debug_info    0x0000000000016ebb      0xf0f /usr/local/ps3dev/ppu/lib/gcc/powerpc64-ps3-elf/4.5.2/../../../../powerpc64-ps3-elf/lib/libc.a(lib_a-svfiscanf.o)
 .debug_info    0x0000000000017dca     0x10b9 /usr/local/ps3dev/ppu/lib/gcc/powerpc64-ps3-elf/4.5.2/../../../../powerpc64-ps3-elf/lib/libc.a(lib_a-svfprintf.o)
 .debug_info    0x0000000000018e83      0xabe /usr/local/ps3dev/ppu/lib/gcc/powerpc64-ps3-elf/4.5.2/../../../../powerpc64-ps3-elf/lib/libc.a(lib_a-ungetc.o)
 .debug_info    0x0000000000019941      0xa0b /usr/local/ps3dev/ppu/lib/gcc/powerpc64-ps3-elf/4.5.2/../../../../powerpc64-ps3-elf/lib/libc.a(lib_a-wsetup.o)
 .debug_info    0x000000000001a34c      0xe8c /usr/local/ps3dev/ppu/lib/gcc/powerpc64-ps3-elf/4.5.2/../../../../powerpc64-ps3-elf/lib/libc.a(lib_a-dtoa.o)
 .debug_info    0x000000000001b1d8      0xa49 /usr/local/ps3dev/ppu/lib/gcc/powerpc64-ps3-elf/4.5.2/../../../../powerpc64-ps3-elf/lib/libc.a(lib_a-fclose.o)
 .debug_info    0x000000000001bc21      0xac1 /usr/local/ps3dev/ppu/lib/gcc/powerpc64-ps3-elf/4.5.2/../../../../powerpc64-ps3-elf/lib/libc.a(lib_a-fflush.o)
 .debug_info    0x000000000001c6e2      0xf56 /usr/local/ps3dev/ppu/lib/gcc/powerpc64-ps3-elf/4.5.2/../../../../powerpc64-ps3-elf/lib/libc.a(lib_a-gdtoa-gethex.o)
 .debug_info    0x000000000001d638      0x348 /usr/local/ps3dev/ppu/lib/gcc/powerpc64-ps3-elf/4.5.2/../../../../powerpc64-ps3-elf/lib/libc.a(lib_a-gdtoa-hexnan.o)
 .debug_info    0x000000000001d980      0x1c7 /usr/local/ps3dev/ppu/lib/gcc/powerpc64-ps3-elf/4.5.2/../../../../powerpc64-ps3-elf/lib/libc.a(lib_a-lock_internal.o)
 .debug_info    0x000000000001db47      0xbda /usr/local/ps3dev/ppu/lib/gcc/powerpc64-ps3-elf/4.5.2/../../../../powerpc64-ps3-elf/lib/libc.a(lib_a-makebuf.o)
 .debug_info    0x000000000001e721     0x161d /usr/local/ps3dev/ppu/lib/gcc/powerpc64-ps3-elf/4.5.2/../../../../powerpc64-ps3-elf/lib/libc.a(lib_a-mprec.o)
 .debug_info    0x000000000001fd3e      0x105 /usr/local/ps3dev/ppu/lib/gcc/powerpc64-ps3-elf/4.5.2/../../../../powerpc64-ps3-elf/lib/libc.a(lib_a-strncmp.o)
 .debug_info    0x000000000001fe43      0xe4a /usr/local/ps3dev/ppu/lib/gcc/powerpc64-ps3-elf/4.5.2/../../../../powerpc64-ps3-elf/lib/libc.a(lib_a-svfiprintf.o)
 .debug_info    0x0000000000020c8d       0x9c /usr/local/ps3dev/ppu/lib/gcc/powerpc64-ps3-elf/4.5.2/../../../../powerpc64-ps3-elf/lib/libc.a(lib_a-abort.o)
 .debug_info    0x0000000000020d29      0xaeb /usr/local/ps3dev/ppu/lib/gcc/powerpc64-ps3-elf/4.5.2/../../../../powerpc64-ps3-elf/lib/libc.a(lib_a-callocr.o)
 .debug_info    0x0000000000021814      0xbd3 /usr/local/ps3dev/ppu/lib/gcc/powerpc64-ps3-elf/4.5.2/../../../../powerpc64-ps3-elf/lib/libc.a(lib_a-signal.o)
 .debug_info    0x00000000000223e7     0x1580 /usr/local/ps3dev/ppu/lib/gcc/powerpc64-ps3-elf/4.5.2/../../../../powerpc64-ps3-elf/lib/libsysbase.a(close.o)
 .debug_info    0x0000000000023967     0x1581 /usr/local/ps3dev/ppu/lib/gcc/powerpc64-ps3-elf/4.5.2/../../../../powerpc64-ps3-elf/lib/libsysbase.a(sbrk.o)
 .debug_info    0x0000000000024ee8     0x156d /usr/local/ps3dev/ppu/lib/gcc/powerpc64-ps3-elf/4.5.2/../../../../powerpc64-ps3-elf/lib/libsysbase.a(_exit.o)
 .debug_info    0x0000000000026455     0x158c /usr/local/ps3dev/ppu/lib/gcc/powerpc64-ps3-elf/4.5.2/../../../../powerpc64-ps3-elf/lib/libsysbase.a(fstat.o)
 .debug_info    0x00000000000279e1     0x1580 /usr/local/ps3dev/ppu/lib/gcc/powerpc64-ps3-elf/4.5.2/../../../../powerpc64-ps3-elf/lib/libsysbase.a(isatty.o)
 .debug_info    0x0000000000028f61     0x159c /usr/local/ps3dev/ppu/lib/gcc/powerpc64-ps3-elf/4.5.2/../../../../powerpc64-ps3-elf/lib/libsysbase.a(lseek.o)
 .debug_info    0x000000000002a4fd     0x159c /usr/local/ps3dev/ppu/lib/gcc/powerpc64-ps3-elf/4.5.2/../../../../powerpc64-ps3-elf/lib/libsysbase.a(read.o)
 .debug_info    0x000000000002ba99     0x159c /usr/local/ps3dev/ppu/lib/gcc/powerpc64-ps3-elf/4.5.2/../../../../powerpc64-ps3-elf/lib/libsysbase.a(write.o)
 .debug_info    0x000000000002d035     0x16a5 /usr/local/ps3dev/ppu/lib/gcc/powerpc64-ps3-elf/4.5.2/../../../../powerpc64-ps3-elf/lib/libsysbase.a(lock.o)
 .debug_info    0x000000000002e6da     0x1572 /usr/local/ps3dev/ppu/lib/gcc/powerpc64-ps3-elf/4.5.2/../../../../powerpc64-ps3-elf/lib/libsysbase.a(getpid.o)
 .debug_info    0x000000000002fc4c      0x9ff /usr/local/ps3dev/ppu/lib/gcc/powerpc64-ps3-elf/4.5.2/../../../../powerpc64-ps3-elf/lib/libsysbase.a(kill.o)

.debug_abbrev   0x0000000000000000     0x7207
 *(.debug_abbrev)
 .debug_abbrev  0x0000000000000000      0x1a0 /usr/local/ps3dev/ppu/lib/gcc/powerpc64-ps3-elf/4.5.2/../../../../powerpc64-ps3-elf/lib/libsysbase.a(syscalls.o)
 .debug_abbrev  0x00000000000001a0      0x1e8 /usr/local/ps3dev/ppu/lib/gcc/powerpc64-ps3-elf/4.5.2/../../../../powerpc64-ps3-elf/lib/libsysbase.a(sleep.o)
 .debug_abbrev  0x0000000000000388       0x7a /usr/local/ps3dev/ppu/lib/gcc/powerpc64-ps3-elf/4.5.2/../../../../powerpc64-ps3-elf/lib/libc.a(lib_a-atexit.o)
 .debug_abbrev  0x0000000000000402       0x4c /usr/local/ps3dev/ppu/lib/gcc/powerpc64-ps3-elf/4.5.2/../../../../powerpc64-ps3-elf/lib/libc.a(lib_a-errno.o)
 .debug_abbrev  0x000000000000044e      0x18c /usr/local/ps3dev/ppu/lib/gcc/powerpc64-ps3-elf/4.5.2/../../../../powerpc64-ps3-elf/lib/libc.a(lib_a-exit.o)
 .debug_abbrev  0x00000000000005da      0x1a9 /usr/local/ps3dev/ppu/lib/gcc/powerpc64-ps3-elf/4.5.2/../../../../powerpc64-ps3-elf/lib/libc.a(lib_a-getreent.o)
 .debug_abbrev  0x0000000000000783      0x173 /usr/local/ps3dev/ppu/lib/gcc/powerpc64-ps3-elf/4.5.2/../../../../powerpc64-ps3-elf/lib/libc.a(lib_a-impure.o)
 .debug_abbrev  0x00000000000008f6       0x66 /usr/local/ps3dev/ppu/lib/gcc/powerpc64-ps3-elf/4.5.2/../../../../powerpc64-ps3-elf/lib/libc.a(lib_a-malign.o)
 .debug_abbrev  0x000000000000095c      0x1a8 /usr/local/ps3dev/ppu/lib/gcc/powerpc64-ps3-elf/4.5.2/../../../../powerpc64-ps3-elf/lib/libc.a(lib_a-malignr.o)
 .debug_abbrev  0x0000000000000b04       0x7d /usr/local/ps3dev/ppu/lib/gcc/powerpc64-ps3-elf/4.5.2/../../../../powerpc64-ps3-elf/lib/libc.a(lib_a-malloc.o)
 .debug_abbrev  0x0000000000000b81      0x242 /usr/local/ps3dev/ppu/lib/gcc/powerpc64-ps3-elf/4.5.2/../../../../powerpc64-ps3-elf/lib/libc.a(lib_a-mallocr.o)
 .debug_abbrev  0x0000000000000dc3       0x8f /usr/local/ps3dev/ppu/lib/gcc/powerpc64-ps3-elf/4.5.2/../../../../powerpc64-ps3-elf/lib/libc.a(lib_a-memset.o)
 .debug_abbrev  0x0000000000000e52      0x188 /usr/local/ps3dev/ppu/lib/gcc/powerpc64-ps3-elf/4.5.2/../../../../powerpc64-ps3-elf/lib/libc.a(lib_a-mlock.o)
 .debug_abbrev  0x0000000000000fda      0x1b7 /usr/local/ps3dev/ppu/lib/gcc/powerpc64-ps3-elf/4.5.2/../../../../powerpc64-ps3-elf/lib/libc.a(lib_a-puts.o)
 .debug_abbrev  0x0000000000001191      0x1c0 /usr/local/ps3dev/ppu/lib/gcc/powerpc64-ps3-elf/4.5.2/../../../../powerpc64-ps3-elf/lib/libc.a(lib_a-sscanf.o)
 .debug_abbrev  0x0000000000001351      0x205 /usr/local/ps3dev/ppu/lib/gcc/powerpc64-ps3-elf/4.5.2/../../../../powerpc64-ps3-elf/lib/libc.a(lib_a-stdio.o)
 .debug_abbrev  0x0000000000001556       0xa5 /usr/local/ps3dev/ppu/lib/gcc/powerpc64-ps3-elf/4.5.2/../../../../powerpc64-ps3-elf/lib/libc.a(lib_a-strcasecmp.o)
 .debug_abbrev  0x00000000000015fb       0x80 /usr/local/ps3dev/ppu/lib/gcc/powerpc64-ps3-elf/4.5.2/../../../../powerpc64-ps3-elf/lib/libc.a(lib_a-strlen.o)
 .debug_abbrev  0x000000000000167b       0x9e /usr/local/ps3dev/ppu/lib/gcc/powerpc64-ps3-elf/4.5.2/../../../../powerpc64-ps3-elf/lib/libc.a(lib_a-strncpy.o)
 .debug_abbrev  0x0000000000001719      0x254 /usr/local/ps3dev/ppu/lib/gcc/powerpc64-ps3-elf/4.5.2/../../../../powerpc64-ps3-elf/lib/libc.a(lib_a-svfscanf.o)
 .debug_abbrev  0x000000000000196d      0x1f5 /usr/local/ps3dev/ppu/lib/gcc/powerpc64-ps3-elf/4.5.2/../../../../powerpc64-ps3-elf/lib/libc.a(lib_a-__atexit.o)
 .debug_abbrev  0x0000000000001b62      0x1eb /usr/local/ps3dev/ppu/lib/gcc/powerpc64-ps3-elf/4.5.2/../../../../powerpc64-ps3-elf/lib/libc.a(lib_a-__call_atexit.o)
 .debug_abbrev  0x0000000000001d4d       0x63 /usr/local/ps3dev/ppu/lib/gcc/powerpc64-ps3-elf/4.5.2/../../../../powerpc64-ps3-elf/lib/libc.a(lib_a-ctype_.o)
 .debug_abbrev  0x0000000000001db0      0x2b9 /usr/local/ps3dev/ppu/lib/gcc/powerpc64-ps3-elf/4.5.2/../../../../powerpc64-ps3-elf/lib/libc.a(lib_a-findfp.o)
 .debug_abbrev  0x0000000000002069      0x1f9 /usr/local/ps3dev/ppu/lib/gcc/powerpc64-ps3-elf/4.5.2/../../../../powerpc64-ps3-elf/lib/libc.a(lib_a-freer.o)
 .debug_abbrev  0x0000000000002262      0x1b4 /usr/local/ps3dev/ppu/lib/gcc/powerpc64-ps3-elf/4.5.2/../../../../powerpc64-ps3-elf/lib/libc.a(lib_a-fvwrite.o)
 .debug_abbrev  0x0000000000002416      0x214 /usr/local/ps3dev/ppu/lib/gcc/powerpc64-ps3-elf/4.5.2/../../../../powerpc64-ps3-elf/lib/libc.a(lib_a-fwalk.o)
 .debug_abbrev  0x000000000000262a       0x82 /usr/local/ps3dev/ppu/lib/gcc/powerpc64-ps3-elf/4.5.2/../../../../powerpc64-ps3-elf/lib/libc.a(lib_a-iswspace.o)
 .debug_abbrev  0x00000000000026ac      0x25a /usr/local/ps3dev/ppu/lib/gcc/powerpc64-ps3-elf/4.5.2/../../../../powerpc64-ps3-elf/lib/libc.a(lib_a-locale.o)
 .debug_abbrev  0x0000000000002906       0xb0 /usr/local/ps3dev/ppu/lib/gcc/powerpc64-ps3-elf/4.5.2/../../../../powerpc64-ps3-elf/lib/libc.a(lib_a-lock_recursive.o)
 .debug_abbrev  0x00000000000029b6      0x19d /usr/local/ps3dev/ppu/lib/gcc/powerpc64-ps3-elf/4.5.2/../../../../powerpc64-ps3-elf/lib/libc.a(lib_a-mbrtowc.o)
 .debug_abbrev  0x0000000000002b53      0x203 /usr/local/ps3dev/ppu/lib/gcc/powerpc64-ps3-elf/4.5.2/../../../../powerpc64-ps3-elf/lib/libc.a(lib_a-mbtowc_r.o)
 .debug_abbrev  0x0000000000002d56       0xb9 /usr/local/ps3dev/ppu/lib/gcc/powerpc64-ps3-elf/4.5.2/../../../../powerpc64-ps3-elf/lib/libc.a(lib_a-memchr.o)
 .debug_abbrev  0x0000000000002e0f       0xaa /usr/local/ps3dev/ppu/lib/gcc/powerpc64-ps3-elf/4.5.2/../../../../powerpc64-ps3-elf/lib/libc.a(lib_a-memcpy.o)
 .debug_abbrev  0x0000000000002eb9       0xaa /usr/local/ps3dev/ppu/lib/gcc/powerpc64-ps3-elf/4.5.2/../../../../powerpc64-ps3-elf/lib/libc.a(lib_a-memmove.o)
 .debug_abbrev  0x0000000000002f63      0x1ea /usr/local/ps3dev/ppu/lib/gcc/powerpc64-ps3-elf/4.5.2/../../../../powerpc64-ps3-elf/lib/libc.a(lib_a-reallocr.o)
 .debug_abbrev  0x000000000000314d       0x86 /usr/local/ps3dev/ppu/lib/gcc/powerpc64-ps3-elf/4.5.2/../../../../powerpc64-ps3-elf/lib/libc.a(lib_a-sccl.o)
 .debug_abbrev  0x00000000000031d3       0x71 /usr/local/ps3dev/ppu/lib/gcc/powerpc64-ps3-elf/4.5.2/../../../../powerpc64-ps3-elf/lib/libc.a(lib_a-sf_nan.o)
 .debug_abbrev  0x0000000000003244       0xc7 /usr/local/ps3dev/ppu/lib/gcc/powerpc64-ps3-elf/4.5.2/../../../../powerpc64-ps3-elf/lib/libc.a(lib_a-s_fpclassify.o)
 .debug_abbrev  0x000000000000330b      0x1c0 /usr/local/ps3dev/ppu/lib/gcc/powerpc64-ps3-elf/4.5.2/../../../../powerpc64-ps3-elf/lib/libc.a(lib_a-sprintf.o)
 .debug_abbrev  0x00000000000034cb       0x73 /usr/local/ps3dev/ppu/lib/gcc/powerpc64-ps3-elf/4.5.2/../../../../powerpc64-ps3-elf/lib/libc.a(lib_a-strcmp.o)
 .debug_abbrev  0x000000000000353e      0x2fe /usr/local/ps3dev/ppu/lib/gcc/powerpc64-ps3-elf/4.5.2/../../../../powerpc64-ps3-elf/lib/libc.a(lib_a-strtod.o)
 .debug_abbrev  0x000000000000383c      0x1bb /usr/local/ps3dev/ppu/lib/gcc/powerpc64-ps3-elf/4.5.2/../../../../powerpc64-ps3-elf/lib/libc.a(lib_a-strtoll_r.o)
 .debug_abbrev  0x00000000000039f7      0x1e3 /usr/local/ps3dev/ppu/lib/gcc/powerpc64-ps3-elf/4.5.2/../../../../powerpc64-ps3-elf/lib/libc.a(lib_a-strtol.o)
 .debug_abbrev  0x0000000000003bda      0x1bb /usr/local/ps3dev/ppu/lib/gcc/powerpc64-ps3-elf/4.5.2/../../../../powerpc64-ps3-elf/lib/libc.a(lib_a-strtoull_r.o)
 .debug_abbrev  0x0000000000003d95      0x1e3 /usr/local/ps3dev/ppu/lib/gcc/powerpc64-ps3-elf/4.5.2/../../../../powerpc64-ps3-elf/lib/libc.a(lib_a-strtoul.o)
 .debug_abbrev  0x0000000000003f78      0x24b /usr/local/ps3dev/ppu/lib/gcc/powerpc64-ps3-elf/4.5.2/../../../../powerpc64-ps3-elf/lib/libc.a(lib_a-svfiscanf.o)
 .debug_abbrev  0x00000000000041c3      0x304 /usr/local/ps3dev/ppu/lib/gcc/powerpc64-ps3-elf/4.5.2/../../../../powerpc64-ps3-elf/lib/libc.a(lib_a-svfprintf.o)
 .debug_abbrev  0x00000000000044c7      0x1cb /usr/local/ps3dev/ppu/lib/gcc/powerpc64-ps3-elf/4.5.2/../../../../powerpc64-ps3-elf/lib/libc.a(lib_a-ungetc.o)
 .debug_abbrev  0x0000000000004692      0x17d /usr/local/ps3dev/ppu/lib/gcc/powerpc64-ps3-elf/4.5.2/../../../../powerpc64-ps3-elf/lib/libc.a(lib_a-wsetup.o)
 .debug_abbrev  0x000000000000480f      0x21a /usr/local/ps3dev/ppu/lib/gcc/powerpc64-ps3-elf/4.5.2/../../../../powerpc64-ps3-elf/lib/libc.a(lib_a-dtoa.o)
 .debug_abbrev  0x0000000000004a29      0x1b2 /usr/local/ps3dev/ppu/lib/gcc/powerpc64-ps3-elf/4.5.2/../../../../powerpc64-ps3-elf/lib/libc.a(lib_a-fclose.o)
 .debug_abbrev  0x0000000000004bdb      0x1cc /usr/local/ps3dev/ppu/lib/gcc/powerpc64-ps3-elf/4.5.2/../../../../powerpc64-ps3-elf/lib/libc.a(lib_a-fflush.o)
 .debug_abbrev  0x0000000000004da7      0x32b /usr/local/ps3dev/ppu/lib/gcc/powerpc64-ps3-elf/4.5.2/../../../../powerpc64-ps3-elf/lib/libc.a(lib_a-gdtoa-gethex.o)
 .debug_abbrev  0x00000000000050d2      0x15e /usr/local/ps3dev/ppu/lib/gcc/powerpc64-ps3-elf/4.5.2/../../../../powerpc64-ps3-elf/lib/libc.a(lib_a-gdtoa-hexnan.o)
 .debug_abbrev  0x0000000000005230       0xc1 /usr/local/ps3dev/ppu/lib/gcc/powerpc64-ps3-elf/4.5.2/../../../../powerpc64-ps3-elf/lib/libc.a(lib_a-lock_internal.o)
 .debug_abbrev  0x00000000000052f1      0x1a8 /usr/local/ps3dev/ppu/lib/gcc/powerpc64-ps3-elf/4.5.2/../../../../powerpc64-ps3-elf/lib/libc.a(lib_a-makebuf.o)
 .debug_abbrev  0x0000000000005499      0x315 /usr/local/ps3dev/ppu/lib/gcc/powerpc64-ps3-elf/4.5.2/../../../../powerpc64-ps3-elf/lib/libc.a(lib_a-mprec.o)
 .debug_abbrev  0x00000000000057ae       0x80 /usr/local/ps3dev/ppu/lib/gcc/powerpc64-ps3-elf/4.5.2/../../../../powerpc64-ps3-elf/lib/libc.a(lib_a-strncmp.o)
 .debug_abbrev  0x000000000000582e      0x26f /usr/local/ps3dev/ppu/lib/gcc/powerpc64-ps3-elf/4.5.2/../../../../powerpc64-ps3-elf/lib/libc.a(lib_a-svfiprintf.o)
 .debug_abbrev  0x0000000000005a9d       0x41 /usr/local/ps3dev/ppu/lib/gcc/powerpc64-ps3-elf/4.5.2/../../../../powerpc64-ps3-elf/lib/libc.a(lib_a-abort.o)
 .debug_abbrev  0x0000000000005ade      0x1c9 /usr/local/ps3dev/ppu/lib/gcc/powerpc64-ps3-elf/4.5.2/../../../../powerpc64-ps3-elf/lib/libc.a(lib_a-callocr.o)
 .debug_abbrev  0x0000000000005ca7      0x1d6 /usr/local/ps3dev/ppu/lib/gcc/powerpc64-ps3-elf/4.5.2/../../../../powerpc64-ps3-elf/lib/libc.a(lib_a-signal.o)
 .debug_abbrev  0x0000000000005e7d      0x1ca /usr/local/ps3dev/ppu/lib/gcc/powerpc64-ps3-elf/4.5.2/../../../../powerpc64-ps3-elf/lib/libsysbase.a(close.o)
 .debug_abbrev  0x0000000000006047      0x1d9 /usr/local/ps3dev/ppu/lib/gcc/powerpc64-ps3-elf/4.5.2/../../../../powerpc64-ps3-elf/lib/libsysbase.a(sbrk.o)
 .debug_abbrev  0x0000000000006220      0x1c8 /usr/local/ps3dev/ppu/lib/gcc/powerpc64-ps3-elf/4.5.2/../../../../powerpc64-ps3-elf/lib/libsysbase.a(_exit.o)
 .debug_abbrev  0x00000000000063e8      0x1ca /usr/local/ps3dev/ppu/lib/gcc/powerpc64-ps3-elf/4.5.2/../../../../powerpc64-ps3-elf/lib/libsysbase.a(fstat.o)
 .debug_abbrev  0x00000000000065b2      0x1ca /usr/local/ps3dev/ppu/lib/gcc/powerpc64-ps3-elf/4.5.2/../../../../powerpc64-ps3-elf/lib/libsysbase.a(isatty.o)
 .debug_abbrev  0x000000000000677c      0x1ca /usr/local/ps3dev/ppu/lib/gcc/powerpc64-ps3-elf/4.5.2/../../../../powerpc64-ps3-elf/lib/libsysbase.a(lseek.o)
 .debug_abbrev  0x0000000000006946      0x1ca /usr/local/ps3dev/ppu/lib/gcc/powerpc64-ps3-elf/4.5.2/../../../../powerpc64-ps3-elf/lib/libsysbase.a(read.o)
 .debug_abbrev  0x0000000000006b10      0x1ca /usr/local/ps3dev/ppu/lib/gcc/powerpc64-ps3-elf/4.5.2/../../../../powerpc64-ps3-elf/lib/libsysbase.a(write.o)
 .debug_abbrev  0x0000000000006cda      0x1d9 /usr/local/ps3dev/ppu/lib/gcc/powerpc64-ps3-elf/4.5.2/../../../../powerpc64-ps3-elf/lib/libsysbase.a(lock.o)
 .debug_abbrev  0x0000000000006eb3      0x1ca /usr/local/ps3dev/ppu/lib/gcc/powerpc64-ps3-elf/4.5.2/../../../../powerpc64-ps3-elf/lib/libsysbase.a(getpid.o)
 .debug_abbrev  0x000000000000707d      0x18a /usr/local/ps3dev/ppu/lib/gcc/powerpc64-ps3-elf/4.5.2/../../../../powerpc64-ps3-elf/lib/libsysbase.a(kill.o)

.debug_line     0x0000000000000000     0xd5f4
 *(.debug_line)
 .debug_line    0x0000000000000000      0x265 /usr/local/ps3dev/ppu/lib/gcc/powerpc64-ps3-elf/4.5.2/../../../../powerpc64-ps3-elf/lib/libsysbase.a(syscalls.o)
 .debug_line    0x0000000000000265      0x2d7 /usr/local/ps3dev/ppu/lib/gcc/powerpc64-ps3-elf/4.5.2/../../../../powerpc64-ps3-elf/lib/libsysbase.a(sleep.o)
 .debug_line    0x000000000000053c       0xc4 /usr/local/ps3dev/ppu/lib/gcc/powerpc64-ps3-elf/4.5.2/../../../../powerpc64-ps3-elf/lib/libc.a(lib_a-atexit.o)
 .debug_line    0x0000000000000600       0xb5 /usr/local/ps3dev/ppu/lib/gcc/powerpc64-ps3-elf/4.5.2/../../../../powerpc64-ps3-elf/lib/libc.a(lib_a-errno.o)
 .debug_line    0x00000000000006b5      0x259 /usr/local/ps3dev/ppu/lib/gcc/powerpc64-ps3-elf/4.5.2/../../../../powerpc64-ps3-elf/lib/libc.a(lib_a-exit.o)
 .debug_line    0x000000000000090e      0x1e3 /usr/local/ps3dev/ppu/lib/gcc/powerpc64-ps3-elf/4.5.2/../../../../powerpc64-ps3-elf/lib/libc.a(lib_a-getreent.o)
 .debug_line    0x0000000000000af1      0x235 /usr/local/ps3dev/ppu/lib/gcc/powerpc64-ps3-elf/4.5.2/../../../../powerpc64-ps3-elf/lib/libc.a(lib_a-impure.o)
 .debug_line    0x0000000000000d26       0xfe /usr/local/ps3dev/ppu/lib/gcc/powerpc64-ps3-elf/4.5.2/../../../../powerpc64-ps3-elf/lib/libc.a(lib_a-malign.o)
 .debug_line    0x0000000000000e24      0x2b7 /usr/local/ps3dev/ppu/lib/gcc/powerpc64-ps3-elf/4.5.2/../../../../powerpc64-ps3-elf/lib/libc.a(lib_a-malignr.o)
 .debug_line    0x00000000000010db      0x115 /usr/local/ps3dev/ppu/lib/gcc/powerpc64-ps3-elf/4.5.2/../../../../powerpc64-ps3-elf/lib/libc.a(lib_a-malloc.o)
 .debug_line    0x00000000000011f0      0x49f /usr/local/ps3dev/ppu/lib/gcc/powerpc64-ps3-elf/4.5.2/../../../../powerpc64-ps3-elf/lib/libc.a(lib_a-mallocr.o)
 .debug_line    0x000000000000168f      0x164 /usr/local/ps3dev/ppu/lib/gcc/powerpc64-ps3-elf/4.5.2/../../../../powerpc64-ps3-elf/lib/libc.a(lib_a-memset.o)
 .debug_line    0x00000000000017f3      0x263 /usr/local/ps3dev/ppu/lib/gcc/powerpc64-ps3-elf/4.5.2/../../../../powerpc64-ps3-elf/lib/libc.a(lib_a-mlock.o)
 .debug_line    0x0000000000001a56      0x299 /usr/local/ps3dev/ppu/lib/gcc/powerpc64-ps3-elf/4.5.2/../../../../powerpc64-ps3-elf/lib/libc.a(lib_a-puts.o)
 .debug_line    0x0000000000001cef      0x2a8 /usr/local/ps3dev/ppu/lib/gcc/powerpc64-ps3-elf/4.5.2/../../../../powerpc64-ps3-elf/lib/libc.a(lib_a-sscanf.o)
 .debug_line    0x0000000000001f97      0x2e7 /usr/local/ps3dev/ppu/lib/gcc/powerpc64-ps3-elf/4.5.2/../../../../powerpc64-ps3-elf/lib/libc.a(lib_a-stdio.o)
 .debug_line    0x000000000000227e       0xf0 /usr/local/ps3dev/ppu/lib/gcc/powerpc64-ps3-elf/4.5.2/../../../../powerpc64-ps3-elf/lib/libc.a(lib_a-strcasecmp.o)
 .debug_line    0x000000000000236e      0x111 /usr/local/ps3dev/ppu/lib/gcc/powerpc64-ps3-elf/4.5.2/../../../../powerpc64-ps3-elf/lib/libc.a(lib_a-strlen.o)
 .debug_line    0x000000000000247f      0x14d /usr/local/ps3dev/ppu/lib/gcc/powerpc64-ps3-elf/4.5.2/../../../../powerpc64-ps3-elf/lib/libc.a(lib_a-strncpy.o)
 .debug_line    0x00000000000025cc      0x6be /usr/local/ps3dev/ppu/lib/gcc/powerpc64-ps3-elf/4.5.2/../../../../powerpc64-ps3-elf/lib/libc.a(lib_a-svfscanf.o)
 .debug_line    0x0000000000002c8a      0x28d /usr/local/ps3dev/ppu/lib/gcc/powerpc64-ps3-elf/4.5.2/../../../../powerpc64-ps3-elf/lib/libc.a(lib_a-__atexit.o)
 .debug_line    0x0000000000002f17      0x2c0 /usr/local/ps3dev/ppu/lib/gcc/powerpc64-ps3-elf/4.5.2/../../../../powerpc64-ps3-elf/lib/libc.a(lib_a-__call_atexit.o)
 .debug_line    0x00000000000031d7       0x70 /usr/local/ps3dev/ppu/lib/gcc/powerpc64-ps3-elf/4.5.2/../../../../powerpc64-ps3-elf/lib/libc.a(lib_a-ctype_.o)
 .debug_line    0x0000000000003247      0x466 /usr/local/ps3dev/ppu/lib/gcc/powerpc64-ps3-elf/4.5.2/../../../../powerpc64-ps3-elf/lib/libc.a(lib_a-findfp.o)
 .debug_line    0x00000000000036ad      0x346 /usr/local/ps3dev/ppu/lib/gcc/powerpc64-ps3-elf/4.5.2/../../../../powerpc64-ps3-elf/lib/libc.a(lib_a-freer.o)
 .debug_line    0x00000000000039f3      0x3cf /usr/local/ps3dev/ppu/lib/gcc/powerpc64-ps3-elf/4.5.2/../../../../powerpc64-ps3-elf/lib/libc.a(lib_a-fvwrite.o)
 .debug_line    0x0000000000003dc2      0x293 /usr/local/ps3dev/ppu/lib/gcc/powerpc64-ps3-elf/4.5.2/../../../../powerpc64-ps3-elf/lib/libc.a(lib_a-fwalk.o)
 .debug_line    0x0000000000004055      0x118 /usr/local/ps3dev/ppu/lib/gcc/powerpc64-ps3-elf/4.5.2/../../../../powerpc64-ps3-elf/lib/libc.a(lib_a-iswspace.o)
 .debug_line    0x000000000000416d      0x31e /usr/local/ps3dev/ppu/lib/gcc/powerpc64-ps3-elf/4.5.2/../../../../powerpc64-ps3-elf/lib/libc.a(lib_a-locale.o)
 .debug_line    0x000000000000448b      0x167 /usr/local/ps3dev/ppu/lib/gcc/powerpc64-ps3-elf/4.5.2/../../../../powerpc64-ps3-elf/lib/libc.a(lib_a-lock_recursive.o)
 .debug_line    0x00000000000045f2      0x2b1 /usr/local/ps3dev/ppu/lib/gcc/powerpc64-ps3-elf/4.5.2/../../../../powerpc64-ps3-elf/lib/libc.a(lib_a-mbrtowc.o)
 .debug_line    0x00000000000048a3      0x29d /usr/local/ps3dev/ppu/lib/gcc/powerpc64-ps3-elf/4.5.2/../../../../powerpc64-ps3-elf/lib/libc.a(lib_a-mbtowc_r.o)
 .debug_line    0x0000000000004b40      0x147 /usr/local/ps3dev/ppu/lib/gcc/powerpc64-ps3-elf/4.5.2/../../../../powerpc64-ps3-elf/lib/libc.a(lib_a-memchr.o)
 .debug_line    0x0000000000004c87      0x161 /usr/local/ps3dev/ppu/lib/gcc/powerpc64-ps3-elf/4.5.2/../../../../powerpc64-ps3-elf/lib/libc.a(lib_a-memcpy.o)
 .debug_line    0x0000000000004de8      0x171 /usr/local/ps3dev/ppu/lib/gcc/powerpc64-ps3-elf/4.5.2/../../../../powerpc64-ps3-elf/lib/libc.a(lib_a-memmove.o)
 .debug_line    0x0000000000004f59      0x40c /usr/local/ps3dev/ppu/lib/gcc/powerpc64-ps3-elf/4.5.2/../../../../powerpc64-ps3-elf/lib/libc.a(lib_a-reallocr.o)
 .debug_line    0x0000000000005365      0x112 /usr/local/ps3dev/ppu/lib/gcc/powerpc64-ps3-elf/4.5.2/../../../../powerpc64-ps3-elf/lib/libc.a(lib_a-sccl.o)
 .debug_line    0x0000000000005477       0xb0 /usr/local/ps3dev/ppu/lib/gcc/powerpc64-ps3-elf/4.5.2/../../../../powerpc64-ps3-elf/lib/libc.a(lib_a-sf_nan.o)
 .debug_line    0x0000000000005527      0x171 /usr/local/ps3dev/ppu/lib/gcc/powerpc64-ps3-elf/4.5.2/../../../../powerpc64-ps3-elf/lib/libc.a(lib_a-s_fpclassify.o)
 .debug_line    0x0000000000005698      0x2a6 /usr/local/ps3dev/ppu/lib/gcc/powerpc64-ps3-elf/4.5.2/../../../../powerpc64-ps3-elf/lib/libc.a(lib_a-sprintf.o)
 .debug_line    0x000000000000593e       0xde /usr/local/ps3dev/ppu/lib/gcc/powerpc64-ps3-elf/4.5.2/../../../../powerpc64-ps3-elf/lib/libc.a(lib_a-strcmp.o)
 .debug_line    0x0000000000005a1c      0x7a5 /usr/local/ps3dev/ppu/lib/gcc/powerpc64-ps3-elf/4.5.2/../../../../powerpc64-ps3-elf/lib/libc.a(lib_a-strtod.o)
 .debug_line    0x00000000000061c1      0x32a /usr/local/ps3dev/ppu/lib/gcc/powerpc64-ps3-elf/4.5.2/../../../../powerpc64-ps3-elf/lib/libc.a(lib_a-strtoll_r.o)
 .debug_line    0x00000000000064eb      0x341 /usr/local/ps3dev/ppu/lib/gcc/powerpc64-ps3-elf/4.5.2/../../../../powerpc64-ps3-elf/lib/libc.a(lib_a-strtol.o)
 .debug_line    0x000000000000682c      0x2f8 /usr/local/ps3dev/ppu/lib/gcc/powerpc64-ps3-elf/4.5.2/../../../../powerpc64-ps3-elf/lib/libc.a(lib_a-strtoull_r.o)
 .debug_line    0x0000000000006b24      0x30e /usr/local/ps3dev/ppu/lib/gcc/powerpc64-ps3-elf/4.5.2/../../../../powerpc64-ps3-elf/lib/libc.a(lib_a-strtoul.o)
 .debug_line    0x0000000000006e32      0x674 /usr/local/ps3dev/ppu/lib/gcc/powerpc64-ps3-elf/4.5.2/../../../../powerpc64-ps3-elf/lib/libc.a(lib_a-svfiscanf.o)
 .debug_line    0x00000000000074a6      0xb01 /usr/local/ps3dev/ppu/lib/gcc/powerpc64-ps3-elf/4.5.2/../../../../powerpc64-ps3-elf/lib/libc.a(lib_a-svfprintf.o)
 .debug_line    0x0000000000007fa7      0x338 /usr/local/ps3dev/ppu/lib/gcc/powerpc64-ps3-elf/4.5.2/../../../../powerpc64-ps3-elf/lib/libc.a(lib_a-ungetc.o)
 .debug_line    0x00000000000082df      0x2b3 /usr/local/ps3dev/ppu/lib/gcc/powerpc64-ps3-elf/4.5.2/../../../../powerpc64-ps3-elf/lib/libc.a(lib_a-wsetup.o)
 .debug_line    0x0000000000008592      0x84c /usr/local/ps3dev/ppu/lib/gcc/powerpc64-ps3-elf/4.5.2/../../../../powerpc64-ps3-elf/lib/libc.a(lib_a-dtoa.o)
 .debug_line    0x0000000000008dde      0x2c1 /usr/local/ps3dev/ppu/lib/gcc/powerpc64-ps3-elf/4.5.2/../../../../powerpc64-ps3-elf/lib/libc.a(lib_a-fclose.o)
 .debug_line    0x000000000000909f      0x382 /usr/local/ps3dev/ppu/lib/gcc/powerpc64-ps3-elf/4.5.2/../../../../powerpc64-ps3-elf/lib/libc.a(lib_a-fflush.o)
 .debug_line    0x0000000000009421      0x4f3 /usr/local/ps3dev/ppu/lib/gcc/powerpc64-ps3-elf/4.5.2/../../../../powerpc64-ps3-elf/lib/libc.a(lib_a-gdtoa-gethex.o)
 .debug_line    0x0000000000009914      0x197 /usr/local/ps3dev/ppu/lib/gcc/powerpc64-ps3-elf/4.5.2/../../../../powerpc64-ps3-elf/lib/libc.a(lib_a-gdtoa-hexnan.o)
 .debug_line    0x0000000000009aab      0x12c /usr/local/ps3dev/ppu/lib/gcc/powerpc64-ps3-elf/4.5.2/../../../../powerpc64-ps3-elf/lib/libc.a(lib_a-lock_internal.o)
 .debug_line    0x0000000000009bd7      0x2f2 /usr/local/ps3dev/ppu/lib/gcc/powerpc64-ps3-elf/4.5.2/../../../../powerpc64-ps3-elf/lib/libc.a(lib_a-makebuf.o)
 .debug_line    0x0000000000009ec9      0x9d5 /usr/local/ps3dev/ppu/lib/gcc/powerpc64-ps3-elf/4.5.2/../../../../powerpc64-ps3-elf/lib/libc.a(lib_a-mprec.o)
 .debug_line    0x000000000000a89e      0x177 /usr/local/ps3dev/ppu/lib/gcc/powerpc64-ps3-elf/4.5.2/../../../../powerpc64-ps3-elf/lib/libc.a(lib_a-strncmp.o)
 .debug_line    0x000000000000aa15      0x78b /usr/local/ps3dev/ppu/lib/gcc/powerpc64-ps3-elf/4.5.2/../../../../powerpc64-ps3-elf/lib/libc.a(lib_a-svfiprintf.o)
 .debug_line    0x000000000000b1a0       0xb7 /usr/local/ps3dev/ppu/lib/gcc/powerpc64-ps3-elf/4.5.2/../../../../powerpc64-ps3-elf/lib/libc.a(lib_a-abort.o)
 .debug_line    0x000000000000b257      0x281 /usr/local/ps3dev/ppu/lib/gcc/powerpc64-ps3-elf/4.5.2/../../../../powerpc64-ps3-elf/lib/libc.a(lib_a-callocr.o)
 .debug_line    0x000000000000b4d8      0x386 /usr/local/ps3dev/ppu/lib/gcc/powerpc64-ps3-elf/4.5.2/../../../../powerpc64-ps3-elf/lib/libc.a(lib_a-signal.o)
 .debug_line    0x000000000000b85e      0x2ae /usr/local/ps3dev/ppu/lib/gcc/powerpc64-ps3-elf/4.5.2/../../../../powerpc64-ps3-elf/lib/libsysbase.a(close.o)
 .debug_line    0x000000000000bb0c      0x2ad /usr/local/ps3dev/ppu/lib/gcc/powerpc64-ps3-elf/4.5.2/../../../../powerpc64-ps3-elf/lib/libsysbase.a(sbrk.o)
 .debug_line    0x000000000000bdb9      0x2b3 /usr/local/ps3dev/ppu/lib/gcc/powerpc64-ps3-elf/4.5.2/../../../../powerpc64-ps3-elf/lib/libsysbase.a(_exit.o)
 .debug_line    0x000000000000c06c      0x2ae /usr/local/ps3dev/ppu/lib/gcc/powerpc64-ps3-elf/4.5.2/../../../../powerpc64-ps3-elf/lib/libsysbase.a(fstat.o)
 .debug_line    0x000000000000c31a      0x2af /usr/local/ps3dev/ppu/lib/gcc/powerpc64-ps3-elf/4.5.2/../../../../powerpc64-ps3-elf/lib/libsysbase.a(isatty.o)
 .debug_line    0x000000000000c5c9      0x2b2 /usr/local/ps3dev/ppu/lib/gcc/powerpc64-ps3-elf/4.5.2/../../../../powerpc64-ps3-elf/lib/libsysbase.a(lseek.o)
 .debug_line    0x000000000000c87b      0x2b1 /usr/local/ps3dev/ppu/lib/gcc/powerpc64-ps3-elf/4.5.2/../../../../powerpc64-ps3-elf/lib/libsysbase.a(read.o)
 .debug_line    0x000000000000cb2c      0x2b2 /usr/local/ps3dev/ppu/lib/gcc/powerpc64-ps3-elf/4.5.2/../../../../powerpc64-ps3-elf/lib/libsysbase.a(write.o)
 .debug_line    0x000000000000cdde      0x320 /usr/local/ps3dev/ppu/lib/gcc/powerpc64-ps3-elf/4.5.2/../../../../powerpc64-ps3-elf/lib/libsysbase.a(lock.o)
 .debug_line    0x000000000000d0fe      0x2af /usr/local/ps3dev/ppu/lib/gcc/powerpc64-ps3-elf/4.5.2/../../../../powerpc64-ps3-elf/lib/libsysbase.a(getpid.o)
 .debug_line    0x000000000000d3ad      0x247 /usr/local/ps3dev/ppu/lib/gcc/powerpc64-ps3-elf/4.5.2/../../../../powerpc64-ps3-elf/lib/libsysbase.a(kill.o)

.debug_frame    0x0000000000000000     0x1f70
 *(.debug_frame)
 .debug_frame   0x0000000000000000       0x68 /usr/local/ps3dev/ppu/lib/gcc/powerpc64-ps3-elf/4.5.2/../../../../powerpc64-ps3-elf/lib/libsysbase.a(sleep.o)
 .debug_frame   0x0000000000000068       0x38 /usr/local/ps3dev/ppu/lib/gcc/powerpc64-ps3-elf/4.5.2/../../../../powerpc64-ps3-elf/lib/libc.a(lib_a-atexit.o)
 .debug_frame   0x00000000000000a0       0x38 /usr/local/ps3dev/ppu/lib/gcc/powerpc64-ps3-elf/4.5.2/../../../../powerpc64-ps3-elf/lib/libc.a(lib_a-errno.o)
 .debug_frame   0x00000000000000d8       0x38 /usr/local/ps3dev/ppu/lib/gcc/powerpc64-ps3-elf/4.5.2/../../../../powerpc64-ps3-elf/lib/libc.a(lib_a-exit.o)
 .debug_frame   0x0000000000000110       0x40 /usr/local/ps3dev/ppu/lib/gcc/powerpc64-ps3-elf/4.5.2/../../../../powerpc64-ps3-elf/lib/libc.a(lib_a-getreent.o)
 .debug_frame   0x0000000000000150       0x40 /usr/local/ps3dev/ppu/lib/gcc/powerpc64-ps3-elf/4.5.2/../../../../powerpc64-ps3-elf/lib/libc.a(lib_a-malign.o)
 .debug_frame   0x0000000000000190       0x58 /usr/local/ps3dev/ppu/lib/gcc/powerpc64-ps3-elf/4.5.2/../../../../powerpc64-ps3-elf/lib/libc.a(lib_a-malignr.o)
 .debug_frame   0x00000000000001e8       0x60 /usr/local/ps3dev/ppu/lib/gcc/powerpc64-ps3-elf/4.5.2/../../../../powerpc64-ps3-elf/lib/libc.a(lib_a-malloc.o)
 .debug_frame   0x0000000000000248       0x58 /usr/local/ps3dev/ppu/lib/gcc/powerpc64-ps3-elf/4.5.2/../../../../powerpc64-ps3-elf/lib/libc.a(lib_a-mallocr.o)
 .debug_frame   0x00000000000002a0       0x28 /usr/local/ps3dev/ppu/lib/gcc/powerpc64-ps3-elf/4.5.2/../../../../powerpc64-ps3-elf/lib/libc.a(lib_a-memset.o)
 .debug_frame   0x00000000000002c8       0x60 /usr/local/ps3dev/ppu/lib/gcc/powerpc64-ps3-elf/4.5.2/../../../../powerpc64-ps3-elf/lib/libc.a(lib_a-mlock.o)
 .debug_frame   0x0000000000000328       0x70 /usr/local/ps3dev/ppu/lib/gcc/powerpc64-ps3-elf/4.5.2/../../../../powerpc64-ps3-elf/lib/libc.a(lib_a-puts.o)
 .debug_frame   0x0000000000000398       0x60 /usr/local/ps3dev/ppu/lib/gcc/powerpc64-ps3-elf/4.5.2/../../../../powerpc64-ps3-elf/lib/libc.a(lib_a-sscanf.o)
 .debug_frame   0x00000000000003f8       0xe0 /usr/local/ps3dev/ppu/lib/gcc/powerpc64-ps3-elf/4.5.2/../../../../powerpc64-ps3-elf/lib/libc.a(lib_a-stdio.o)
 .debug_frame   0x00000000000004d8       0x28 /usr/local/ps3dev/ppu/lib/gcc/powerpc64-ps3-elf/4.5.2/../../../../powerpc64-ps3-elf/lib/libc.a(lib_a-strcasecmp.o)
 .debug_frame   0x0000000000000500       0x28 /usr/local/ps3dev/ppu/lib/gcc/powerpc64-ps3-elf/4.5.2/../../../../powerpc64-ps3-elf/lib/libc.a(lib_a-strlen.o)
 .debug_frame   0x0000000000000528       0x28 /usr/local/ps3dev/ppu/lib/gcc/powerpc64-ps3-elf/4.5.2/../../../../powerpc64-ps3-elf/lib/libc.a(lib_a-strncpy.o)
 .debug_frame   0x0000000000000550       0x70 /usr/local/ps3dev/ppu/lib/gcc/powerpc64-ps3-elf/4.5.2/../../../../powerpc64-ps3-elf/lib/libc.a(lib_a-svfscanf.o)
 .debug_frame   0x00000000000005c0       0x50 /usr/local/ps3dev/ppu/lib/gcc/powerpc64-ps3-elf/4.5.2/../../../../powerpc64-ps3-elf/lib/libc.a(lib_a-__atexit.o)
 .debug_frame   0x0000000000000610       0x58 /usr/local/ps3dev/ppu/lib/gcc/powerpc64-ps3-elf/4.5.2/../../../../powerpc64-ps3-elf/lib/libc.a(lib_a-__call_atexit.o)
 .debug_frame   0x0000000000000668      0x228 /usr/local/ps3dev/ppu/lib/gcc/powerpc64-ps3-elf/4.5.2/../../../../powerpc64-ps3-elf/lib/libc.a(lib_a-findfp.o)
 .debug_frame   0x0000000000000890       0x78 /usr/local/ps3dev/ppu/lib/gcc/powerpc64-ps3-elf/4.5.2/../../../../powerpc64-ps3-elf/lib/libc.a(lib_a-freer.o)
 .debug_frame   0x0000000000000908       0x60 /usr/local/ps3dev/ppu/lib/gcc/powerpc64-ps3-elf/4.5.2/../../../../powerpc64-ps3-elf/lib/libc.a(lib_a-fvwrite.o)
 .debug_frame   0x0000000000000968       0x80 /usr/local/ps3dev/ppu/lib/gcc/powerpc64-ps3-elf/4.5.2/../../../../powerpc64-ps3-elf/lib/libc.a(lib_a-fwalk.o)
 .debug_frame   0x00000000000009e8       0x28 /usr/local/ps3dev/ppu/lib/gcc/powerpc64-ps3-elf/4.5.2/../../../../powerpc64-ps3-elf/lib/libc.a(lib_a-iswspace.o)
 .debug_frame   0x0000000000000a10      0x108 /usr/local/ps3dev/ppu/lib/gcc/powerpc64-ps3-elf/4.5.2/../../../../powerpc64-ps3-elf/lib/libc.a(lib_a-locale.o)
 .debug_frame   0x0000000000000b18       0xd8 /usr/local/ps3dev/ppu/lib/gcc/powerpc64-ps3-elf/4.5.2/../../../../powerpc64-ps3-elf/lib/libc.a(lib_a-lock_recursive.o)
 .debug_frame   0x0000000000000bf0       0x88 /usr/local/ps3dev/ppu/lib/gcc/powerpc64-ps3-elf/4.5.2/../../../../powerpc64-ps3-elf/lib/libc.a(lib_a-mbrtowc.o)
 .debug_frame   0x0000000000000c78       0x58 /usr/local/ps3dev/ppu/lib/gcc/powerpc64-ps3-elf/4.5.2/../../../../powerpc64-ps3-elf/lib/libc.a(lib_a-mbtowc_r.o)
 .debug_frame   0x0000000000000cd0       0x28 /usr/local/ps3dev/ppu/lib/gcc/powerpc64-ps3-elf/4.5.2/../../../../powerpc64-ps3-elf/lib/libc.a(lib_a-memchr.o)
 .debug_frame   0x0000000000000cf8       0x28 /usr/local/ps3dev/ppu/lib/gcc/powerpc64-ps3-elf/4.5.2/../../../../powerpc64-ps3-elf/lib/libc.a(lib_a-memcpy.o)
 .debug_frame   0x0000000000000d20       0x28 /usr/local/ps3dev/ppu/lib/gcc/powerpc64-ps3-elf/4.5.2/../../../../powerpc64-ps3-elf/lib/libc.a(lib_a-memmove.o)
 .debug_frame   0x0000000000000d48       0x68 /usr/local/ps3dev/ppu/lib/gcc/powerpc64-ps3-elf/4.5.2/../../../../powerpc64-ps3-elf/lib/libc.a(lib_a-reallocr.o)
 .debug_frame   0x0000000000000db0       0x28 /usr/local/ps3dev/ppu/lib/gcc/powerpc64-ps3-elf/4.5.2/../../../../powerpc64-ps3-elf/lib/libc.a(lib_a-sccl.o)
 .debug_frame   0x0000000000000dd8       0x28 /usr/local/ps3dev/ppu/lib/gcc/powerpc64-ps3-elf/4.5.2/../../../../powerpc64-ps3-elf/lib/libc.a(lib_a-sf_nan.o)
 .debug_frame   0x0000000000000e00       0x28 /usr/local/ps3dev/ppu/lib/gcc/powerpc64-ps3-elf/4.5.2/../../../../powerpc64-ps3-elf/lib/libc.a(lib_a-s_fpclassify.o)
 .debug_frame   0x0000000000000e28       0x60 /usr/local/ps3dev/ppu/lib/gcc/powerpc64-ps3-elf/4.5.2/../../../../powerpc64-ps3-elf/lib/libc.a(lib_a-sprintf.o)
 .debug_frame   0x0000000000000e88       0x28 /usr/local/ps3dev/ppu/lib/gcc/powerpc64-ps3-elf/4.5.2/../../../../powerpc64-ps3-elf/lib/libc.a(lib_a-strcmp.o)
 .debug_frame   0x0000000000000eb0       0xe8 /usr/local/ps3dev/ppu/lib/gcc/powerpc64-ps3-elf/4.5.2/../../../../powerpc64-ps3-elf/lib/libc.a(lib_a-strtod.o)
 .debug_frame   0x0000000000000f98       0x38 /usr/local/ps3dev/ppu/lib/gcc/powerpc64-ps3-elf/4.5.2/../../../../powerpc64-ps3-elf/lib/libc.a(lib_a-strtoll_r.o)
 .debug_frame   0x0000000000000fd0       0x68 /usr/local/ps3dev/ppu/lib/gcc/powerpc64-ps3-elf/4.5.2/../../../../powerpc64-ps3-elf/lib/libc.a(lib_a-strtol.o)
 .debug_frame   0x0000000000001038       0x38 /usr/local/ps3dev/ppu/lib/gcc/powerpc64-ps3-elf/4.5.2/../../../../powerpc64-ps3-elf/lib/libc.a(lib_a-strtoull_r.o)
 .debug_frame   0x0000000000001070       0x68 /usr/local/ps3dev/ppu/lib/gcc/powerpc64-ps3-elf/4.5.2/../../../../powerpc64-ps3-elf/lib/libc.a(lib_a-strtoul.o)
 .debug_frame   0x00000000000010d8      0x110 /usr/local/ps3dev/ppu/lib/gcc/powerpc64-ps3-elf/4.5.2/../../../../powerpc64-ps3-elf/lib/libc.a(lib_a-svfiscanf.o)
 .debug_frame   0x00000000000011e8       0x70 /usr/local/ps3dev/ppu/lib/gcc/powerpc64-ps3-elf/4.5.2/../../../../powerpc64-ps3-elf/lib/libc.a(lib_a-svfprintf.o)
 .debug_frame   0x0000000000001258       0xb0 /usr/local/ps3dev/ppu/lib/gcc/powerpc64-ps3-elf/4.5.2/../../../../powerpc64-ps3-elf/lib/libc.a(lib_a-ungetc.o)
 .debug_frame   0x0000000000001308       0x40 /usr/local/ps3dev/ppu/lib/gcc/powerpc64-ps3-elf/4.5.2/../../../../powerpc64-ps3-elf/lib/libc.a(lib_a-wsetup.o)
 .debug_frame   0x0000000000001348       0xa0 /usr/local/ps3dev/ppu/lib/gcc/powerpc64-ps3-elf/4.5.2/../../../../powerpc64-ps3-elf/lib/libc.a(lib_a-dtoa.o)
 .debug_frame   0x00000000000013e8       0x78 /usr/local/ps3dev/ppu/lib/gcc/powerpc64-ps3-elf/4.5.2/../../../../powerpc64-ps3-elf/lib/libc.a(lib_a-fclose.o)
 .debug_frame   0x0000000000001460       0x80 /usr/local/ps3dev/ppu/lib/gcc/powerpc64-ps3-elf/4.5.2/../../../../powerpc64-ps3-elf/lib/libc.a(lib_a-fflush.o)
 .debug_frame   0x00000000000014e0       0x90 /usr/local/ps3dev/ppu/lib/gcc/powerpc64-ps3-elf/4.5.2/../../../../powerpc64-ps3-elf/lib/libc.a(lib_a-gdtoa-gethex.o)
 .debug_frame   0x0000000000001570       0x50 /usr/local/ps3dev/ppu/lib/gcc/powerpc64-ps3-elf/4.5.2/../../../../powerpc64-ps3-elf/lib/libc.a(lib_a-gdtoa-hexnan.o)
 .debug_frame   0x00000000000015c0       0x68 /usr/local/ps3dev/ppu/lib/gcc/powerpc64-ps3-elf/4.5.2/../../../../powerpc64-ps3-elf/lib/libc.a(lib_a-lock_internal.o)
 .debug_frame   0x0000000000001628       0x50 /usr/local/ps3dev/ppu/lib/gcc/powerpc64-ps3-elf/4.5.2/../../../../powerpc64-ps3-elf/lib/libc.a(lib_a-makebuf.o)
 .debug_frame   0x0000000000001678      0x330 /usr/local/ps3dev/ppu/lib/gcc/powerpc64-ps3-elf/4.5.2/../../../../powerpc64-ps3-elf/lib/libc.a(lib_a-mprec.o)
 .debug_frame   0x00000000000019a8       0x28 /usr/local/ps3dev/ppu/lib/gcc/powerpc64-ps3-elf/4.5.2/../../../../powerpc64-ps3-elf/lib/libc.a(lib_a-strncmp.o)
 .debug_frame   0x00000000000019d0       0xb8 /usr/local/ps3dev/ppu/lib/gcc/powerpc64-ps3-elf/4.5.2/../../../../powerpc64-ps3-elf/lib/libc.a(lib_a-svfiprintf.o)
 .debug_frame   0x0000000000001a88       0x30 /usr/local/ps3dev/ppu/lib/gcc/powerpc64-ps3-elf/4.5.2/../../../../powerpc64-ps3-elf/lib/libc.a(lib_a-abort.o)
 .debug_frame   0x0000000000001ab8       0x40 /usr/local/ps3dev/ppu/lib/gcc/powerpc64-ps3-elf/4.5.2/../../../../powerpc64-ps3-elf/lib/libc.a(lib_a-callocr.o)
 .debug_frame   0x0000000000001af8      0x178 /usr/local/ps3dev/ppu/lib/gcc/powerpc64-ps3-elf/4.5.2/../../../../powerpc64-ps3-elf/lib/libc.a(lib_a-signal.o)
 .debug_frame   0x0000000000001c70       0x38 /usr/local/ps3dev/ppu/lib/gcc/powerpc64-ps3-elf/4.5.2/../../../../powerpc64-ps3-elf/lib/libsysbase.a(close.o)
 .debug_frame   0x0000000000001ca8       0x38 /usr/local/ps3dev/ppu/lib/gcc/powerpc64-ps3-elf/4.5.2/../../../../powerpc64-ps3-elf/lib/libsysbase.a(sbrk.o)
 .debug_frame   0x0000000000001ce0       0x30 /usr/local/ps3dev/ppu/lib/gcc/powerpc64-ps3-elf/4.5.2/../../../../powerpc64-ps3-elf/lib/libsysbase.a(_exit.o)
 .debug_frame   0x0000000000001d10       0x38 /usr/local/ps3dev/ppu/lib/gcc/powerpc64-ps3-elf/4.5.2/../../../../powerpc64-ps3-elf/lib/libsysbase.a(fstat.o)
 .debug_frame   0x0000000000001d48       0x38 /usr/local/ps3dev/ppu/lib/gcc/powerpc64-ps3-elf/4.5.2/../../../../powerpc64-ps3-elf/lib/libsysbase.a(isatty.o)
 .debug_frame   0x0000000000001d80       0x38 /usr/local/ps3dev/ppu/lib/gcc/powerpc64-ps3-elf/4.5.2/../../../../powerpc64-ps3-elf/lib/libsysbase.a(lseek.o)
 .debug_frame   0x0000000000001db8       0x38 /usr/local/ps3dev/ppu/lib/gcc/powerpc64-ps3-elf/4.5.2/../../../../powerpc64-ps3-elf/lib/libsysbase.a(read.o)
 .debug_frame   0x0000000000001df0       0x38 /usr/local/ps3dev/ppu/lib/gcc/powerpc64-ps3-elf/4.5.2/../../../../powerpc64-ps3-elf/lib/libsysbase.a(write.o)
 .debug_frame   0x0000000000001e28       0xe8 /usr/local/ps3dev/ppu/lib/gcc/powerpc64-ps3-elf/4.5.2/../../../../powerpc64-ps3-elf/lib/libsysbase.a(lock.o)
 .debug_frame   0x0000000000001f10       0x38 /usr/local/ps3dev/ppu/lib/gcc/powerpc64-ps3-elf/4.5.2/../../../../powerpc64-ps3-elf/lib/libsysbase.a(getpid.o)
 .debug_frame   0x0000000000001f48       0x28 /usr/local/ps3dev/ppu/lib/gcc/powerpc64-ps3-elf/4.5.2/../../../../powerpc64-ps3-elf/lib/libsysbase.a(kill.o)

.debug_str      0x0000000000000000     0x29fb
 *(.debug_str)
 .debug_str     0x0000000000000000      0x891 /usr/local/ps3dev/ppu/lib/gcc/powerpc64-ps3-elf/4.5.2/../../../../powerpc64-ps3-elf/lib/libsysbase.a(syscalls.o)
                                        0x9c9 (size before relaxing)
 .debug_str     0x0000000000000891       0x2f /usr/local/ps3dev/ppu/lib/gcc/powerpc64-ps3-elf/4.5.2/../../../../powerpc64-ps3-elf/lib/libsysbase.a(sleep.o)
                                        0x9d8 (size before relaxing)
 .debug_str     0x00000000000008c0       0xbe /usr/local/ps3dev/ppu/lib/gcc/powerpc64-ps3-elf/4.5.2/../../../../powerpc64-ps3-elf/lib/libc.a(lib_a-atexit.o)
                                        0x15a (size before relaxing)
 .debug_str     0x000000000000097e       0x93 /usr/local/ps3dev/ppu/lib/gcc/powerpc64-ps3-elf/4.5.2/../../../../powerpc64-ps3-elf/lib/libc.a(lib_a-errno.o)
                                        0x128 (size before relaxing)
 .debug_str     0x0000000000000a11       0x41 /usr/local/ps3dev/ppu/lib/gcc/powerpc64-ps3-elf/4.5.2/../../../../powerpc64-ps3-elf/lib/libc.a(lib_a-exit.o)
                                        0x558 (size before relaxing)
 .debug_str     0x0000000000000a52       0xb8 /usr/local/ps3dev/ppu/lib/gcc/powerpc64-ps3-elf/4.5.2/../../../../powerpc64-ps3-elf/lib/libc.a(lib_a-getreent.o)
                                        0x567 (size before relaxing)
 .debug_str     0x0000000000000b0a       0x98 /usr/local/ps3dev/ppu/lib/gcc/powerpc64-ps3-elf/4.5.2/../../../../powerpc64-ps3-elf/lib/libc.a(lib_a-impure.o)
                                        0x566 (size before relaxing)
 .debug_str     0x0000000000000ba2       0x3b /usr/local/ps3dev/ppu/lib/gcc/powerpc64-ps3-elf/4.5.2/../../../../powerpc64-ps3-elf/lib/libc.a(lib_a-malign.o)
                                        0x140 (size before relaxing)
 .debug_str     0x0000000000000bdd       0x9c /usr/local/ps3dev/ppu/lib/gcc/powerpc64-ps3-elf/4.5.2/../../../../powerpc64-ps3-elf/lib/libc.a(lib_a-malignr.o)
                                        0x5c0 (size before relaxing)
 .debug_str     0x0000000000000c79       0x30 /usr/local/ps3dev/ppu/lib/gcc/powerpc64-ps3-elf/4.5.2/../../../../powerpc64-ps3-elf/lib/libc.a(lib_a-malloc.o)
                                        0x142 (size before relaxing)
 .debug_str     0x0000000000000ca9      0x188 /usr/local/ps3dev/ppu/lib/gcc/powerpc64-ps3-elf/4.5.2/../../../../powerpc64-ps3-elf/lib/libc.a(lib_a-mallocr.o)
                                        0x73d (size before relaxing)
 .debug_str     0x0000000000000e31       0xa2 /usr/local/ps3dev/ppu/lib/gcc/powerpc64-ps3-elf/4.5.2/../../../../powerpc64-ps3-elf/lib/libc.a(lib_a-memset.o)
                                        0x145 (size before relaxing)
 .debug_str     0x0000000000000ed3       0x5d /usr/local/ps3dev/ppu/lib/gcc/powerpc64-ps3-elf/4.5.2/../../../../powerpc64-ps3-elf/lib/libc.a(lib_a-mlock.o)
                                        0x56f (size before relaxing)
 .debug_str     0x0000000000000f30       0xd3 /usr/local/ps3dev/ppu/lib/gcc/powerpc64-ps3-elf/4.5.2/../../../../powerpc64-ps3-elf/lib/libc.a(lib_a-puts.o)
                                        0x589 (size before relaxing)
 .debug_str     0x0000000000001003       0x5c /usr/local/ps3dev/ppu/lib/gcc/powerpc64-ps3-elf/4.5.2/../../../../powerpc64-ps3-elf/lib/libc.a(lib_a-sscanf.o)
                                        0x57a (size before relaxing)
 .debug_str     0x000000000000105f       0x5d /usr/local/ps3dev/ppu/lib/gcc/powerpc64-ps3-elf/4.5.2/../../../../powerpc64-ps3-elf/lib/libc.a(lib_a-stdio.o)
                                        0x58d (size before relaxing)
 .debug_str     0x00000000000010bc       0x52 /usr/local/ps3dev/ppu/lib/gcc/powerpc64-ps3-elf/4.5.2/../../../../powerpc64-ps3-elf/lib/libc.a(lib_a-strcasecmp.o)
                                        0x14a (size before relaxing)
 .debug_str     0x000000000000110e       0x32 /usr/local/ps3dev/ppu/lib/gcc/powerpc64-ps3-elf/4.5.2/../../../../powerpc64-ps3-elf/lib/libc.a(lib_a-strlen.o)
                                        0x144 (size before relaxing)
 .debug_str     0x0000000000001140       0x56 /usr/local/ps3dev/ppu/lib/gcc/powerpc64-ps3-elf/4.5.2/../../../../powerpc64-ps3-elf/lib/libc.a(lib_a-strncpy.o)
                                        0x15b (size before relaxing)
 .debug_str     0x0000000000001196      0x137 /usr/local/ps3dev/ppu/lib/gcc/powerpc64-ps3-elf/4.5.2/../../../../powerpc64-ps3-elf/lib/libc.a(lib_a-svfscanf.o)
                                        0x6c0 (size before relaxing)
 .debug_str     0x00000000000012cd       0x4f /usr/local/ps3dev/ppu/lib/gcc/powerpc64-ps3-elf/4.5.2/../../../../powerpc64-ps3-elf/lib/libc.a(lib_a-__atexit.o)
                                        0x5ae (size before relaxing)
 .debug_str     0x000000000000131c       0x51 /usr/local/ps3dev/ppu/lib/gcc/powerpc64-ps3-elf/4.5.2/../../../../powerpc64-ps3-elf/lib/libc.a(lib_a-__call_atexit.o)
                                        0x58e (size before relaxing)
 .debug_str     0x000000000000136d       0x94 /usr/local/ps3dev/ppu/lib/gcc/powerpc64-ps3-elf/4.5.2/../../../../powerpc64-ps3-elf/lib/libc.a(lib_a-ctype_.o)
                                         0xc5 (size before relaxing)
 .debug_str     0x0000000000001401      0x16d /usr/local/ps3dev/ppu/lib/gcc/powerpc64-ps3-elf/4.5.2/../../../../powerpc64-ps3-elf/lib/libc.a(lib_a-findfp.o)
                                        0x6b9 (size before relaxing)
 .debug_str     0x000000000000156e       0x3c /usr/local/ps3dev/ppu/lib/gcc/powerpc64-ps3-elf/4.5.2/../../../../powerpc64-ps3-elf/lib/libc.a(lib_a-freer.o)
                                        0x68f (size before relaxing)
 .debug_str     0x00000000000015aa       0x4e /usr/local/ps3dev/ppu/lib/gcc/powerpc64-ps3-elf/4.5.2/../../../../powerpc64-ps3-elf/lib/libc.a(lib_a-fvwrite.o)
                                        0x5af (size before relaxing)
 .debug_str     0x00000000000015f8       0x4e /usr/local/ps3dev/ppu/lib/gcc/powerpc64-ps3-elf/4.5.2/../../../../powerpc64-ps3-elf/lib/libc.a(lib_a-fwalk.o)
                                        0x581 (size before relaxing)
 .debug_str     0x0000000000001646       0x35 /usr/local/ps3dev/ppu/lib/gcc/powerpc64-ps3-elf/4.5.2/../../../../powerpc64-ps3-elf/lib/libc.a(lib_a-iswspace.o)
                                        0x141 (size before relaxing)
 .debug_str     0x000000000000167b      0x269 /usr/local/ps3dev/ppu/lib/gcc/powerpc64-ps3-elf/4.5.2/../../../../powerpc64-ps3-elf/lib/libc.a(lib_a-locale.o)
                                        0x7b0 (size before relaxing)
 .debug_str     0x00000000000018e4      0x10e /usr/local/ps3dev/ppu/lib/gcc/powerpc64-ps3-elf/4.5.2/../../../../powerpc64-ps3-elf/lib/libc.a(lib_a-lock_recursive.o)
                                        0x289 (size before relaxing)
 .debug_str     0x00000000000019f2       0x4f /usr/local/ps3dev/ppu/lib/gcc/powerpc64-ps3-elf/4.5.2/../../../../powerpc64-ps3-elf/lib/libc.a(lib_a-mbrtowc.o)
                                        0x57a (size before relaxing)
 .debug_str     0x0000000000001a41       0x4c /usr/local/ps3dev/ppu/lib/gcc/powerpc64-ps3-elf/4.5.2/../../../../powerpc64-ps3-elf/lib/libc.a(lib_a-mbtowc_r.o)
                                        0x58e (size before relaxing)
 .debug_str     0x0000000000001a8d       0x47 /usr/local/ps3dev/ppu/lib/gcc/powerpc64-ps3-elf/4.5.2/../../../../powerpc64-ps3-elf/lib/libc.a(lib_a-memchr.o)
                                        0x14b (size before relaxing)
 .debug_str     0x0000000000001ad4       0x37 /usr/local/ps3dev/ppu/lib/gcc/powerpc64-ps3-elf/4.5.2/../../../../powerpc64-ps3-elf/lib/libc.a(lib_a-memcpy.o)
                                        0x158 (size before relaxing)
 .debug_str     0x0000000000001b0b       0x3d /usr/local/ps3dev/ppu/lib/gcc/powerpc64-ps3-elf/4.5.2/../../../../powerpc64-ps3-elf/lib/libc.a(lib_a-memmove.o)
                                        0x164 (size before relaxing)
 .debug_str     0x0000000000001b48       0x54 /usr/local/ps3dev/ppu/lib/gcc/powerpc64-ps3-elf/4.5.2/../../../../powerpc64-ps3-elf/lib/libc.a(lib_a-reallocr.o)
                                        0x60f (size before relaxing)
 .debug_str     0x0000000000001b9c       0x3f /usr/local/ps3dev/ppu/lib/gcc/powerpc64-ps3-elf/4.5.2/../../../../powerpc64-ps3-elf/lib/libc.a(lib_a-sccl.o)
                                        0x136 (size before relaxing)
 .debug_str     0x0000000000001bdb       0x93 /usr/local/ps3dev/ppu/lib/gcc/powerpc64-ps3-elf/4.5.2/../../../../powerpc64-ps3-elf/lib/libc.a(lib_a-sf_nan.o)
                                        0x148 (size before relaxing)
 .debug_str     0x0000000000001c6e       0x6c /usr/local/ps3dev/ppu/lib/gcc/powerpc64-ps3-elf/4.5.2/../../../../powerpc64-ps3-elf/lib/libc.a(lib_a-s_fpclassify.o)
                                        0x183 (size before relaxing)
 .debug_str     0x0000000000001cda       0x3e /usr/local/ps3dev/ppu/lib/gcc/powerpc64-ps3-elf/4.5.2/../../../../powerpc64-ps3-elf/lib/libc.a(lib_a-sprintf.o)
                                        0x57d (size before relaxing)
 .debug_str     0x0000000000001d18       0x32 /usr/local/ps3dev/ppu/lib/gcc/powerpc64-ps3-elf/4.5.2/../../../../powerpc64-ps3-elf/lib/libc.a(lib_a-strcmp.o)
                                        0x12a (size before relaxing)
 .debug_str     0x0000000000001d4a      0x1e1 /usr/local/ps3dev/ppu/lib/gcc/powerpc64-ps3-elf/4.5.2/../../../../powerpc64-ps3-elf/lib/libc.a(lib_a-strtod.o)
                                        0x736 (size before relaxing)
 .debug_str     0x0000000000001f2b       0x4e /usr/local/ps3dev/ppu/lib/gcc/powerpc64-ps3-elf/4.5.2/../../../../powerpc64-ps3-elf/lib/libc.a(lib_a-strtoll_r.o)
                                        0x57d (size before relaxing)
 .debug_str     0x0000000000001f79       0x3c /usr/local/ps3dev/ppu/lib/gcc/powerpc64-ps3-elf/4.5.2/../../../../powerpc64-ps3-elf/lib/libc.a(lib_a-strtol.o)
                                        0x580 (size before relaxing)
 .debug_str     0x0000000000001fb5       0x3b /usr/local/ps3dev/ppu/lib/gcc/powerpc64-ps3-elf/4.5.2/../../../../powerpc64-ps3-elf/lib/libc.a(lib_a-strtoull_r.o)
                                        0x57f (size before relaxing)
 .debug_str     0x0000000000001ff0       0x3f /usr/local/ps3dev/ppu/lib/gcc/powerpc64-ps3-elf/4.5.2/../../../../powerpc64-ps3-elf/lib/libc.a(lib_a-strtoul.o)
                                        0x583 (size before relaxing)
 .debug_str     0x000000000000202f       0x37 /usr/local/ps3dev/ppu/lib/gcc/powerpc64-ps3-elf/4.5.2/../../../../powerpc64-ps3-elf/lib/libc.a(lib_a-svfiscanf.o)
                                        0x69b (size before relaxing)
 .debug_str     0x0000000000002066      0x121 /usr/local/ps3dev/ppu/lib/gcc/powerpc64-ps3-elf/4.5.2/../../../../powerpc64-ps3-elf/lib/libc.a(lib_a-svfprintf.o)
                                        0x734 (size before relaxing)
 .debug_str     0x0000000000002187       0x45 /usr/local/ps3dev/ppu/lib/gcc/powerpc64-ps3-elf/4.5.2/../../../../powerpc64-ps3-elf/lib/libc.a(lib_a-ungetc.o)
                                        0x567 (size before relaxing)
 .debug_str     0x00000000000021cc       0x36 /usr/local/ps3dev/ppu/lib/gcc/powerpc64-ps3-elf/4.5.2/../../../../powerpc64-ps3-elf/lib/libc.a(lib_a-wsetup.o)
                                        0x54c (size before relaxing)
 .debug_str     0x0000000000002202       0xc9 /usr/local/ps3dev/ppu/lib/gcc/powerpc64-ps3-elf/4.5.2/../../../../powerpc64-ps3-elf/lib/libc.a(lib_a-dtoa.o)
                                        0x64d (size before relaxing)
 .debug_str     0x00000000000022cb       0x3b /usr/local/ps3dev/ppu/lib/gcc/powerpc64-ps3-elf/4.5.2/../../../../powerpc64-ps3-elf/lib/libc.a(lib_a-fclose.o)
                                        0x556 (size before relaxing)
 .debug_str     0x0000000000002306       0x4c /usr/local/ps3dev/ppu/lib/gcc/powerpc64-ps3-elf/4.5.2/../../../../powerpc64-ps3-elf/lib/libc.a(lib_a-fflush.o)
                                        0x57c (size before relaxing)
 .debug_str     0x0000000000002352       0xde /usr/local/ps3dev/ppu/lib/gcc/powerpc64-ps3-elf/4.5.2/../../../../powerpc64-ps3-elf/lib/libc.a(lib_a-gdtoa-gethex.o)
                                        0x732 (size before relaxing)
 .debug_str     0x0000000000002430       0x42 /usr/local/ps3dev/ppu/lib/gcc/powerpc64-ps3-elf/4.5.2/../../../../powerpc64-ps3-elf/lib/libc.a(lib_a-gdtoa-hexnan.o)
                                        0x260 (size before relaxing)
 .debug_str     0x0000000000002472       0x67 /usr/local/ps3dev/ppu/lib/gcc/powerpc64-ps3-elf/4.5.2/../../../../powerpc64-ps3-elf/lib/libc.a(lib_a-lock_internal.o)
                                        0x227 (size before relaxing)
 .debug_str     0x00000000000024d9       0x43 /usr/local/ps3dev/ppu/lib/gcc/powerpc64-ps3-elf/4.5.2/../../../../powerpc64-ps3-elf/lib/libc.a(lib_a-makebuf.o)
                                        0x652 (size before relaxing)
 .debug_str     0x000000000000251c       0xe8 /usr/local/ps3dev/ppu/lib/gcc/powerpc64-ps3-elf/4.5.2/../../../../powerpc64-ps3-elf/lib/libc.a(lib_a-mprec.o)
                                        0x65a (size before relaxing)
 .debug_str     0x0000000000002604       0x34 /usr/local/ps3dev/ppu/lib/gcc/powerpc64-ps3-elf/4.5.2/../../../../powerpc64-ps3-elf/lib/libc.a(lib_a-strncmp.o)
                                        0x133 (size before relaxing)
 .debug_str     0x0000000000002638       0x1a /usr/local/ps3dev/ppu/lib/gcc/powerpc64-ps3-elf/4.5.2/../../../../powerpc64-ps3-elf/lib/libc.a(lib_a-svfiprintf.o)
                                        0x6a7 (size before relaxing)
 .debug_str     0x0000000000002652       0x30 /usr/local/ps3dev/ppu/lib/gcc/powerpc64-ps3-elf/4.5.2/../../../../powerpc64-ps3-elf/lib/libc.a(lib_a-abort.o)
                                        0x128 (size before relaxing)
 .debug_str     0x0000000000002682       0x19 /usr/local/ps3dev/ppu/lib/gcc/powerpc64-ps3-elf/4.5.2/../../../../powerpc64-ps3-elf/lib/libc.a(lib_a-callocr.o)
                                        0x58e (size before relaxing)
 .debug_str     0x000000000000269b       0xe8 /usr/local/ps3dev/ppu/lib/gcc/powerpc64-ps3-elf/4.5.2/../../../../powerpc64-ps3-elf/lib/libc.a(lib_a-signal.o)
                                        0x5ad (size before relaxing)
 .debug_str     0x0000000000002783       0x31 /usr/local/ps3dev/ppu/lib/gcc/powerpc64-ps3-elf/4.5.2/../../../../powerpc64-ps3-elf/lib/libsysbase.a(close.o)
                                        0x9cf (size before relaxing)
 .debug_str     0x00000000000027b4       0x34 /usr/local/ps3dev/ppu/lib/gcc/powerpc64-ps3-elf/4.5.2/../../../../powerpc64-ps3-elf/lib/libsysbase.a(sbrk.o)
                                        0x9d2 (size before relaxing)
 .debug_str     0x00000000000027e8       0x2e /usr/local/ps3dev/ppu/lib/gcc/powerpc64-ps3-elf/4.5.2/../../../../powerpc64-ps3-elf/lib/libsysbase.a(_exit.o)
                                        0x9cc (size before relaxing)
 .debug_str     0x0000000000002816       0x31 /usr/local/ps3dev/ppu/lib/gcc/powerpc64-ps3-elf/4.5.2/../../../../powerpc64-ps3-elf/lib/libsysbase.a(fstat.o)
                                        0x9cf (size before relaxing)
 .debug_str     0x0000000000002847       0x33 /usr/local/ps3dev/ppu/lib/gcc/powerpc64-ps3-elf/4.5.2/../../../../powerpc64-ps3-elf/lib/libsysbase.a(isatty.o)
                                        0x9d1 (size before relaxing)
 .debug_str     0x000000000000287a       0x31 /usr/local/ps3dev/ppu/lib/gcc/powerpc64-ps3-elf/4.5.2/../../../../powerpc64-ps3-elf/lib/libsysbase.a(lseek.o)
                                        0x9cf (size before relaxing)
 .debug_str     0x00000000000028ab       0x2f /usr/local/ps3dev/ppu/lib/gcc/powerpc64-ps3-elf/4.5.2/../../../../powerpc64-ps3-elf/lib/libsysbase.a(read.o)
                                        0x9cd (size before relaxing)
 .debug_str     0x00000000000028da       0x31 /usr/local/ps3dev/ppu/lib/gcc/powerpc64-ps3-elf/4.5.2/../../../../powerpc64-ps3-elf/lib/libsysbase.a(write.o)
                                        0x9cf (size before relaxing)
 .debug_str     0x000000000000290b       0x8e /usr/local/ps3dev/ppu/lib/gcc/powerpc64-ps3-elf/4.5.2/../../../../powerpc64-ps3-elf/lib/libsysbase.a(lock.o)
                                        0xa39 (size before relaxing)
 .debug_str     0x0000000000002999       0x33 /usr/local/ps3dev/ppu/lib/gcc/powerpc64-ps3-elf/4.5.2/../../../../powerpc64-ps3-elf/lib/libsysbase.a(getpid.o)
                                        0x9d1 (size before relaxing)
 .debug_str     0x00000000000029cc       0x2f /usr/local/ps3dev/ppu/lib/gcc/powerpc64-ps3-elf/4.5.2/../../../../powerpc64-ps3-elf/lib/libsysbase.a(kill.o)
                                        0x542 (size before relaxing)

.debug_loc      0x0000000000000000    0x20742
 *(.debug_loc)
 .debug_loc     0x0000000000000000      0x1d6 /usr/local/ps3dev/ppu/lib/gcc/powerpc64-ps3-elf/4.5.2/../../../../powerpc64-ps3-elf/lib/libsysbase.a(sleep.o)
 .debug_loc     0x00000000000001d6       0x83 /usr/local/ps3dev/ppu/lib/gcc/powerpc64-ps3-elf/4.5.2/../../../../powerpc64-ps3-elf/lib/libc.a(lib_a-atexit.o)
 .debug_loc     0x0000000000000259       0x4d /usr/local/ps3dev/ppu/lib/gcc/powerpc64-ps3-elf/4.5.2/../../../../powerpc64-ps3-elf/lib/libc.a(lib_a-errno.o)
 .debug_loc     0x00000000000002a6       0x5c /usr/local/ps3dev/ppu/lib/gcc/powerpc64-ps3-elf/4.5.2/../../../../powerpc64-ps3-elf/lib/libc.a(lib_a-exit.o)
 .debug_loc     0x0000000000000302       0xc8 /usr/local/ps3dev/ppu/lib/gcc/powerpc64-ps3-elf/4.5.2/../../../../powerpc64-ps3-elf/lib/libc.a(lib_a-getreent.o)
 .debug_loc     0x00000000000003ca       0xb9 /usr/local/ps3dev/ppu/lib/gcc/powerpc64-ps3-elf/4.5.2/../../../../powerpc64-ps3-elf/lib/libc.a(lib_a-malign.o)
 .debug_loc     0x0000000000000483      0x424 /usr/local/ps3dev/ppu/lib/gcc/powerpc64-ps3-elf/4.5.2/../../../../powerpc64-ps3-elf/lib/libc.a(lib_a-malignr.o)
 .debug_loc     0x00000000000008a7      0x106 /usr/local/ps3dev/ppu/lib/gcc/powerpc64-ps3-elf/4.5.2/../../../../powerpc64-ps3-elf/lib/libc.a(lib_a-malloc.o)
 .debug_loc     0x00000000000009ad     0x11b0 /usr/local/ps3dev/ppu/lib/gcc/powerpc64-ps3-elf/4.5.2/../../../../powerpc64-ps3-elf/lib/libc.a(lib_a-mallocr.o)
 .debug_loc     0x0000000000001b5d      0x2a9 /usr/local/ps3dev/ppu/lib/gcc/powerpc64-ps3-elf/4.5.2/../../../../powerpc64-ps3-elf/lib/libc.a(lib_a-memset.o)
 .debug_loc     0x0000000000001e06       0xe0 /usr/local/ps3dev/ppu/lib/gcc/powerpc64-ps3-elf/4.5.2/../../../../powerpc64-ps3-elf/lib/libc.a(lib_a-mlock.o)
 .debug_loc     0x0000000000001ee6      0x1fc /usr/local/ps3dev/ppu/lib/gcc/powerpc64-ps3-elf/4.5.2/../../../../powerpc64-ps3-elf/lib/libc.a(lib_a-puts.o)
 .debug_loc     0x00000000000020e2      0x16f /usr/local/ps3dev/ppu/lib/gcc/powerpc64-ps3-elf/4.5.2/../../../../powerpc64-ps3-elf/lib/libc.a(lib_a-sscanf.o)
 .debug_loc     0x0000000000002251      0x4dd /usr/local/ps3dev/ppu/lib/gcc/powerpc64-ps3-elf/4.5.2/../../../../powerpc64-ps3-elf/lib/libc.a(lib_a-stdio.o)
 .debug_loc     0x000000000000272e      0x1b2 /usr/local/ps3dev/ppu/lib/gcc/powerpc64-ps3-elf/4.5.2/../../../../powerpc64-ps3-elf/lib/libc.a(lib_a-strcasecmp.o)
 .debug_loc     0x00000000000028e0      0x13e /usr/local/ps3dev/ppu/lib/gcc/powerpc64-ps3-elf/4.5.2/../../../../powerpc64-ps3-elf/lib/libc.a(lib_a-strlen.o)
 .debug_loc     0x0000000000002a1e      0x1f5 /usr/local/ps3dev/ppu/lib/gcc/powerpc64-ps3-elf/4.5.2/../../../../powerpc64-ps3-elf/lib/libc.a(lib_a-strncpy.o)
 .debug_loc     0x0000000000002c13     0x2535 /usr/local/ps3dev/ppu/lib/gcc/powerpc64-ps3-elf/4.5.2/../../../../powerpc64-ps3-elf/lib/libc.a(lib_a-svfscanf.o)
 .debug_loc     0x0000000000005148      0x1f5 /usr/local/ps3dev/ppu/lib/gcc/powerpc64-ps3-elf/4.5.2/../../../../powerpc64-ps3-elf/lib/libc.a(lib_a-__atexit.o)
 .debug_loc     0x000000000000533d      0x287 /usr/local/ps3dev/ppu/lib/gcc/powerpc64-ps3-elf/4.5.2/../../../../powerpc64-ps3-elf/lib/libc.a(lib_a-__call_atexit.o)
 .debug_loc     0x00000000000055c4      0x7e6 /usr/local/ps3dev/ppu/lib/gcc/powerpc64-ps3-elf/4.5.2/../../../../powerpc64-ps3-elf/lib/libc.a(lib_a-findfp.o)
 .debug_loc     0x0000000000005daa      0x79a /usr/local/ps3dev/ppu/lib/gcc/powerpc64-ps3-elf/4.5.2/../../../../powerpc64-ps3-elf/lib/libc.a(lib_a-freer.o)
 .debug_loc     0x0000000000006544      0x982 /usr/local/ps3dev/ppu/lib/gcc/powerpc64-ps3-elf/4.5.2/../../../../powerpc64-ps3-elf/lib/libc.a(lib_a-fvwrite.o)
 .debug_loc     0x0000000000006ec6      0x566 /usr/local/ps3dev/ppu/lib/gcc/powerpc64-ps3-elf/4.5.2/../../../../powerpc64-ps3-elf/lib/libc.a(lib_a-fwalk.o)
 .debug_loc     0x000000000000742c       0x23 /usr/local/ps3dev/ppu/lib/gcc/powerpc64-ps3-elf/4.5.2/../../../../powerpc64-ps3-elf/lib/libc.a(lib_a-iswspace.o)
 .debug_loc     0x000000000000744f      0x21a /usr/local/ps3dev/ppu/lib/gcc/powerpc64-ps3-elf/4.5.2/../../../../powerpc64-ps3-elf/lib/libc.a(lib_a-locale.o)
 .debug_loc     0x0000000000007669      0x269 /usr/local/ps3dev/ppu/lib/gcc/powerpc64-ps3-elf/4.5.2/../../../../powerpc64-ps3-elf/lib/libc.a(lib_a-lock_recursive.o)
 .debug_loc     0x00000000000078d2      0x4f8 /usr/local/ps3dev/ppu/lib/gcc/powerpc64-ps3-elf/4.5.2/../../../../powerpc64-ps3-elf/lib/libc.a(lib_a-mbrtowc.o)
 .debug_loc     0x0000000000007dca      0x18e /usr/local/ps3dev/ppu/lib/gcc/powerpc64-ps3-elf/4.5.2/../../../../powerpc64-ps3-elf/lib/libc.a(lib_a-mbtowc_r.o)
 .debug_loc     0x0000000000007f58      0x26a /usr/local/ps3dev/ppu/lib/gcc/powerpc64-ps3-elf/4.5.2/../../../../powerpc64-ps3-elf/lib/libc.a(lib_a-memchr.o)
 .debug_loc     0x00000000000081c2      0x24d /usr/local/ps3dev/ppu/lib/gcc/powerpc64-ps3-elf/4.5.2/../../../../powerpc64-ps3-elf/lib/libc.a(lib_a-memcpy.o)
 .debug_loc     0x000000000000840f      0x2c4 /usr/local/ps3dev/ppu/lib/gcc/powerpc64-ps3-elf/4.5.2/../../../../powerpc64-ps3-elf/lib/libc.a(lib_a-memmove.o)
 .debug_loc     0x00000000000086d3     0x12d3 /usr/local/ps3dev/ppu/lib/gcc/powerpc64-ps3-elf/4.5.2/../../../../powerpc64-ps3-elf/lib/libc.a(lib_a-reallocr.o)
 .debug_loc     0x00000000000099a6      0x242 /usr/local/ps3dev/ppu/lib/gcc/powerpc64-ps3-elf/4.5.2/../../../../powerpc64-ps3-elf/lib/libc.a(lib_a-sccl.o)
 .debug_loc     0x0000000000009be8       0x23 /usr/local/ps3dev/ppu/lib/gcc/powerpc64-ps3-elf/4.5.2/../../../../powerpc64-ps3-elf/lib/libc.a(lib_a-s_fpclassify.o)
 .debug_loc     0x0000000000009c0b      0x16f /usr/local/ps3dev/ppu/lib/gcc/powerpc64-ps3-elf/4.5.2/../../../../powerpc64-ps3-elf/lib/libc.a(lib_a-sprintf.o)
 .debug_loc     0x0000000000009d7a      0x18f /usr/local/ps3dev/ppu/lib/gcc/powerpc64-ps3-elf/4.5.2/../../../../powerpc64-ps3-elf/lib/libc.a(lib_a-strcmp.o)
 .debug_loc     0x0000000000009f09     0x2e39 /usr/local/ps3dev/ppu/lib/gcc/powerpc64-ps3-elf/4.5.2/../../../../powerpc64-ps3-elf/lib/libc.a(lib_a-strtod.o)
 .debug_loc     0x000000000000cd42      0x50b /usr/local/ps3dev/ppu/lib/gcc/powerpc64-ps3-elf/4.5.2/../../../../powerpc64-ps3-elf/lib/libc.a(lib_a-strtoll_r.o)
 .debug_loc     0x000000000000d24d      0x60d /usr/local/ps3dev/ppu/lib/gcc/powerpc64-ps3-elf/4.5.2/../../../../powerpc64-ps3-elf/lib/libc.a(lib_a-strtol.o)
 .debug_loc     0x000000000000d85a      0x3ed /usr/local/ps3dev/ppu/lib/gcc/powerpc64-ps3-elf/4.5.2/../../../../powerpc64-ps3-elf/lib/libc.a(lib_a-strtoull_r.o)
 .debug_loc     0x000000000000dc47      0x4ef /usr/local/ps3dev/ppu/lib/gcc/powerpc64-ps3-elf/4.5.2/../../../../powerpc64-ps3-elf/lib/libc.a(lib_a-strtoul.o)
 .debug_loc     0x000000000000e136     0x2233 /usr/local/ps3dev/ppu/lib/gcc/powerpc64-ps3-elf/4.5.2/../../../../powerpc64-ps3-elf/lib/libc.a(lib_a-svfiscanf.o)
 .debug_loc     0x0000000000010369     0x3930 /usr/local/ps3dev/ppu/lib/gcc/powerpc64-ps3-elf/4.5.2/../../../../powerpc64-ps3-elf/lib/libc.a(lib_a-svfprintf.o)
 .debug_loc     0x0000000000013c99      0x443 /usr/local/ps3dev/ppu/lib/gcc/powerpc64-ps3-elf/4.5.2/../../../../powerpc64-ps3-elf/lib/libc.a(lib_a-ungetc.o)
 .debug_loc     0x00000000000140dc       0xf4 /usr/local/ps3dev/ppu/lib/gcc/powerpc64-ps3-elf/4.5.2/../../../../powerpc64-ps3-elf/lib/libc.a(lib_a-wsetup.o)
 .debug_loc     0x00000000000141d0     0x35a1 /usr/local/ps3dev/ppu/lib/gcc/powerpc64-ps3-elf/4.5.2/../../../../powerpc64-ps3-elf/lib/libc.a(lib_a-dtoa.o)
 .debug_loc     0x0000000000017771      0x235 /usr/local/ps3dev/ppu/lib/gcc/powerpc64-ps3-elf/4.5.2/../../../../powerpc64-ps3-elf/lib/libc.a(lib_a-fclose.o)
 .debug_loc     0x00000000000179a6      0x490 /usr/local/ps3dev/ppu/lib/gcc/powerpc64-ps3-elf/4.5.2/../../../../powerpc64-ps3-elf/lib/libc.a(lib_a-fflush.o)
 .debug_loc     0x0000000000017e36     0x175d /usr/local/ps3dev/ppu/lib/gcc/powerpc64-ps3-elf/4.5.2/../../../../powerpc64-ps3-elf/lib/libc.a(lib_a-gdtoa-gethex.o)
 .debug_loc     0x0000000000019593      0x73b /usr/local/ps3dev/ppu/lib/gcc/powerpc64-ps3-elf/4.5.2/../../../../powerpc64-ps3-elf/lib/libc.a(lib_a-gdtoa-hexnan.o)
 .debug_loc     0x0000000000019cce      0x10d /usr/local/ps3dev/ppu/lib/gcc/powerpc64-ps3-elf/4.5.2/../../../../powerpc64-ps3-elf/lib/libc.a(lib_a-lock_internal.o)
 .debug_loc     0x0000000000019ddb      0x2fb /usr/local/ps3dev/ppu/lib/gcc/powerpc64-ps3-elf/4.5.2/../../../../powerpc64-ps3-elf/lib/libc.a(lib_a-makebuf.o)
 .debug_loc     0x000000000001a0d6     0x2b85 /usr/local/ps3dev/ppu/lib/gcc/powerpc64-ps3-elf/4.5.2/../../../../powerpc64-ps3-elf/lib/libc.a(lib_a-mprec.o)
 .debug_loc     0x000000000001cc5b      0x292 /usr/local/ps3dev/ppu/lib/gcc/powerpc64-ps3-elf/4.5.2/../../../../powerpc64-ps3-elf/lib/libc.a(lib_a-strncmp.o)
 .debug_loc     0x000000000001ceed     0x1f86 /usr/local/ps3dev/ppu/lib/gcc/powerpc64-ps3-elf/4.5.2/../../../../powerpc64-ps3-elf/lib/libc.a(lib_a-svfiprintf.o)
 .debug_loc     0x000000000001ee73       0x39 /usr/local/ps3dev/ppu/lib/gcc/powerpc64-ps3-elf/4.5.2/../../../../powerpc64-ps3-elf/lib/libc.a(lib_a-abort.o)
 .debug_loc     0x000000000001eeac      0x320 /usr/local/ps3dev/ppu/lib/gcc/powerpc64-ps3-elf/4.5.2/../../../../powerpc64-ps3-elf/lib/libc.a(lib_a-callocr.o)
 .debug_loc     0x000000000001f1cc      0x72d /usr/local/ps3dev/ppu/lib/gcc/powerpc64-ps3-elf/4.5.2/../../../../powerpc64-ps3-elf/lib/libc.a(lib_a-signal.o)
 .debug_loc     0x000000000001f8f9       0xe1 /usr/local/ps3dev/ppu/lib/gcc/powerpc64-ps3-elf/4.5.2/../../../../powerpc64-ps3-elf/lib/libsysbase.a(close.o)
 .debug_loc     0x000000000001f9da       0xf5 /usr/local/ps3dev/ppu/lib/gcc/powerpc64-ps3-elf/4.5.2/../../../../powerpc64-ps3-elf/lib/libsysbase.a(sbrk.o)
 .debug_loc     0x000000000001facf       0x5c /usr/local/ps3dev/ppu/lib/gcc/powerpc64-ps3-elf/4.5.2/../../../../powerpc64-ps3-elf/lib/libsysbase.a(_exit.o)
 .debug_loc     0x000000000001fb2b      0x117 /usr/local/ps3dev/ppu/lib/gcc/powerpc64-ps3-elf/4.5.2/../../../../powerpc64-ps3-elf/lib/libsysbase.a(fstat.o)
 .debug_loc     0x000000000001fc42       0xf5 /usr/local/ps3dev/ppu/lib/gcc/powerpc64-ps3-elf/4.5.2/../../../../powerpc64-ps3-elf/lib/libsysbase.a(isatty.o)
 .debug_loc     0x000000000001fd37      0x14d /usr/local/ps3dev/ppu/lib/gcc/powerpc64-ps3-elf/4.5.2/../../../../powerpc64-ps3-elf/lib/libsysbase.a(lseek.o)
 .debug_loc     0x000000000001fe84      0x14d /usr/local/ps3dev/ppu/lib/gcc/powerpc64-ps3-elf/4.5.2/../../../../powerpc64-ps3-elf/lib/libsysbase.a(read.o)
 .debug_loc     0x000000000001ffd1      0x14d /usr/local/ps3dev/ppu/lib/gcc/powerpc64-ps3-elf/4.5.2/../../../../powerpc64-ps3-elf/lib/libsysbase.a(write.o)
 .debug_loc     0x000000000002011e      0x556 /usr/local/ps3dev/ppu/lib/gcc/powerpc64-ps3-elf/4.5.2/../../../../powerpc64-ps3-elf/lib/libsysbase.a(lock.o)
 .debug_loc     0x0000000000020674       0xab /usr/local/ps3dev/ppu/lib/gcc/powerpc64-ps3-elf/4.5.2/../../../../powerpc64-ps3-elf/lib/libsysbase.a(getpid.o)
 .debug_loc     0x000000000002071f       0x23 /usr/local/ps3dev/ppu/lib/gcc/powerpc64-ps3-elf/4.5.2/../../../../powerpc64-ps3-elf/lib/libsysbase.a(kill.o)

.debug_macinfo
 *(.debug_macinfo)

.debug_weaknames
 *(.debug_weaknames)

.debug_funcnames
 *(.debug_funcnames)

.debug_typenames
 *(.debug_typenames)

.debug_varnames
 *(.debug_varnames)

.debug_pubtypes
                0x0000000000000000     0x5855
 *(.debug_pubtypes)
 .debug_pubtypes
                0x0000000000000000      0x2d1 /usr/local/ps3dev/ppu/lib/gcc/powerpc64-ps3-elf/4.5.2/../../../../powerpc64-ps3-elf/lib/libsysbase.a(syscalls.o)
 .debug_pubtypes
                0x00000000000002d1      0x2d1 /usr/local/ps3dev/ppu/lib/gcc/powerpc64-ps3-elf/4.5.2/../../../../powerpc64-ps3-elf/lib/libsysbase.a(sleep.o)
 .debug_pubtypes
                0x00000000000005a2       0x25 /usr/local/ps3dev/ppu/lib/gcc/powerpc64-ps3-elf/4.5.2/../../../../powerpc64-ps3-elf/lib/libc.a(lib_a-atexit.o)
 .debug_pubtypes
                0x00000000000005c7       0x12 /usr/local/ps3dev/ppu/lib/gcc/powerpc64-ps3-elf/4.5.2/../../../../powerpc64-ps3-elf/lib/libc.a(lib_a-errno.o)
 .debug_pubtypes
                0x00000000000005d9      0x124 /usr/local/ps3dev/ppu/lib/gcc/powerpc64-ps3-elf/4.5.2/../../../../powerpc64-ps3-elf/lib/libc.a(lib_a-exit.o)
 .debug_pubtypes
                0x00000000000006fd      0x124 /usr/local/ps3dev/ppu/lib/gcc/powerpc64-ps3-elf/4.5.2/../../../../powerpc64-ps3-elf/lib/libc.a(lib_a-getreent.o)
 .debug_pubtypes
                0x0000000000000821      0x124 /usr/local/ps3dev/ppu/lib/gcc/powerpc64-ps3-elf/4.5.2/../../../../powerpc64-ps3-elf/lib/libc.a(lib_a-impure.o)
 .debug_pubtypes
                0x0000000000000945       0x1d /usr/local/ps3dev/ppu/lib/gcc/powerpc64-ps3-elf/4.5.2/../../../../powerpc64-ps3-elf/lib/libc.a(lib_a-malign.o)
 .debug_pubtypes
                0x0000000000000962      0x14e /usr/local/ps3dev/ppu/lib/gcc/powerpc64-ps3-elf/4.5.2/../../../../powerpc64-ps3-elf/lib/libc.a(lib_a-malignr.o)
 .debug_pubtypes
                0x0000000000000ab0       0x1d /usr/local/ps3dev/ppu/lib/gcc/powerpc64-ps3-elf/4.5.2/../../../../powerpc64-ps3-elf/lib/libc.a(lib_a-malloc.o)
 .debug_pubtypes
                0x0000000000000acd      0x167 /usr/local/ps3dev/ppu/lib/gcc/powerpc64-ps3-elf/4.5.2/../../../../powerpc64-ps3-elf/lib/libc.a(lib_a-mallocr.o)
 .debug_pubtypes
                0x0000000000000c34       0x1d /usr/local/ps3dev/ppu/lib/gcc/powerpc64-ps3-elf/4.5.2/../../../../powerpc64-ps3-elf/lib/libc.a(lib_a-memset.o)
 .debug_pubtypes
                0x0000000000000c51      0x124 /usr/local/ps3dev/ppu/lib/gcc/powerpc64-ps3-elf/4.5.2/../../../../powerpc64-ps3-elf/lib/libc.a(lib_a-mlock.o)
 .debug_pubtypes
                0x0000000000000d75      0x145 /usr/local/ps3dev/ppu/lib/gcc/powerpc64-ps3-elf/4.5.2/../../../../powerpc64-ps3-elf/lib/libc.a(lib_a-puts.o)
 .debug_pubtypes
                0x0000000000000eba      0x14c /usr/local/ps3dev/ppu/lib/gcc/powerpc64-ps3-elf/4.5.2/../../../../powerpc64-ps3-elf/lib/libc.a(lib_a-sscanf.o)
 .debug_pubtypes
                0x0000000000001006      0x138 /usr/local/ps3dev/ppu/lib/gcc/powerpc64-ps3-elf/4.5.2/../../../../powerpc64-ps3-elf/lib/libc.a(lib_a-stdio.o)
 .debug_pubtypes
                0x000000000000113e       0x12 /usr/local/ps3dev/ppu/lib/gcc/powerpc64-ps3-elf/4.5.2/../../../../powerpc64-ps3-elf/lib/libc.a(lib_a-strcasecmp.o)
 .debug_pubtypes
                0x0000000000001150       0x1d /usr/local/ps3dev/ppu/lib/gcc/powerpc64-ps3-elf/4.5.2/../../../../powerpc64-ps3-elf/lib/libc.a(lib_a-strlen.o)
 .debug_pubtypes
                0x000000000000116d       0x1d /usr/local/ps3dev/ppu/lib/gcc/powerpc64-ps3-elf/4.5.2/../../../../powerpc64-ps3-elf/lib/libc.a(lib_a-strncpy.o)
 .debug_pubtypes
                0x000000000000118a      0x18f /usr/local/ps3dev/ppu/lib/gcc/powerpc64-ps3-elf/4.5.2/../../../../powerpc64-ps3-elf/lib/libc.a(lib_a-svfscanf.o)
 .debug_pubtypes
                0x0000000000001319      0x137 /usr/local/ps3dev/ppu/lib/gcc/powerpc64-ps3-elf/4.5.2/../../../../powerpc64-ps3-elf/lib/libc.a(lib_a-__atexit.o)
 .debug_pubtypes
                0x0000000000001450      0x124 /usr/local/ps3dev/ppu/lib/gcc/powerpc64-ps3-elf/4.5.2/../../../../powerpc64-ps3-elf/lib/libc.a(lib_a-__call_atexit.o)
 .debug_pubtypes
                0x0000000000001574      0x12d /usr/local/ps3dev/ppu/lib/gcc/powerpc64-ps3-elf/4.5.2/../../../../powerpc64-ps3-elf/lib/libc.a(lib_a-findfp.o)
 .debug_pubtypes
                0x00000000000016a1      0x167 /usr/local/ps3dev/ppu/lib/gcc/powerpc64-ps3-elf/4.5.2/../../../../powerpc64-ps3-elf/lib/libc.a(lib_a-freer.o)
 .debug_pubtypes
                0x0000000000001808      0x14e /usr/local/ps3dev/ppu/lib/gcc/powerpc64-ps3-elf/4.5.2/../../../../powerpc64-ps3-elf/lib/libc.a(lib_a-fvwrite.o)
 .debug_pubtypes
                0x0000000000001956      0x12d /usr/local/ps3dev/ppu/lib/gcc/powerpc64-ps3-elf/4.5.2/../../../../powerpc64-ps3-elf/lib/libc.a(lib_a-fwalk.o)
 .debug_pubtypes
                0x0000000000001a83       0x1d /usr/local/ps3dev/ppu/lib/gcc/powerpc64-ps3-elf/4.5.2/../../../../powerpc64-ps3-elf/lib/libc.a(lib_a-iswspace.o)
 .debug_pubtypes
                0x0000000000001aa0      0x12e /usr/local/ps3dev/ppu/lib/gcc/powerpc64-ps3-elf/4.5.2/../../../../powerpc64-ps3-elf/lib/libc.a(lib_a-locale.o)
 .debug_pubtypes
                0x0000000000001bce       0x7c /usr/local/ps3dev/ppu/lib/gcc/powerpc64-ps3-elf/4.5.2/../../../../powerpc64-ps3-elf/lib/libc.a(lib_a-lock_recursive.o)
 .debug_pubtypes
                0x0000000000001c4a      0x149 /usr/local/ps3dev/ppu/lib/gcc/powerpc64-ps3-elf/4.5.2/../../../../powerpc64-ps3-elf/lib/libc.a(lib_a-mbrtowc.o)
 .debug_pubtypes
                0x0000000000001d93      0x149 /usr/local/ps3dev/ppu/lib/gcc/powerpc64-ps3-elf/4.5.2/../../../../powerpc64-ps3-elf/lib/libc.a(lib_a-mbtowc_r.o)
 .debug_pubtypes
                0x0000000000001edc       0x1d /usr/local/ps3dev/ppu/lib/gcc/powerpc64-ps3-elf/4.5.2/../../../../powerpc64-ps3-elf/lib/libc.a(lib_a-memchr.o)
 .debug_pubtypes
                0x0000000000001ef9       0x1d /usr/local/ps3dev/ppu/lib/gcc/powerpc64-ps3-elf/4.5.2/../../../../powerpc64-ps3-elf/lib/libc.a(lib_a-memcpy.o)
 .debug_pubtypes
                0x0000000000001f16       0x1d /usr/local/ps3dev/ppu/lib/gcc/powerpc64-ps3-elf/4.5.2/../../../../powerpc64-ps3-elf/lib/libc.a(lib_a-memmove.o)
 .debug_pubtypes
                0x0000000000001f33      0x15a /usr/local/ps3dev/ppu/lib/gcc/powerpc64-ps3-elf/4.5.2/../../../../powerpc64-ps3-elf/lib/libc.a(lib_a-reallocr.o)
 .debug_pubtypes
                0x000000000000208d       0x1d /usr/local/ps3dev/ppu/lib/gcc/powerpc64-ps3-elf/4.5.2/../../../../powerpc64-ps3-elf/lib/libc.a(lib_a-sccl.o)
 .debug_pubtypes
                0x00000000000020aa       0x12 /usr/local/ps3dev/ppu/lib/gcc/powerpc64-ps3-elf/4.5.2/../../../../powerpc64-ps3-elf/lib/libc.a(lib_a-sf_nan.o)
 .debug_pubtypes
                0x00000000000020bc       0x3c /usr/local/ps3dev/ppu/lib/gcc/powerpc64-ps3-elf/4.5.2/../../../../powerpc64-ps3-elf/lib/libc.a(lib_a-s_fpclassify.o)
 .debug_pubtypes
                0x00000000000020f8      0x14c /usr/local/ps3dev/ppu/lib/gcc/powerpc64-ps3-elf/4.5.2/../../../../powerpc64-ps3-elf/lib/libc.a(lib_a-sprintf.o)
 .debug_pubtypes
                0x0000000000002244       0x12 /usr/local/ps3dev/ppu/lib/gcc/powerpc64-ps3-elf/4.5.2/../../../../powerpc64-ps3-elf/lib/libc.a(lib_a-strcmp.o)
 .debug_pubtypes
                0x0000000000002256      0x16c /usr/local/ps3dev/ppu/lib/gcc/powerpc64-ps3-elf/4.5.2/../../../../powerpc64-ps3-elf/lib/libc.a(lib_a-strtod.o)
 .debug_pubtypes
                0x00000000000023c2      0x124 /usr/local/ps3dev/ppu/lib/gcc/powerpc64-ps3-elf/4.5.2/../../../../powerpc64-ps3-elf/lib/libc.a(lib_a-strtoll_r.o)
 .debug_pubtypes
                0x00000000000024e6      0x124 /usr/local/ps3dev/ppu/lib/gcc/powerpc64-ps3-elf/4.5.2/../../../../powerpc64-ps3-elf/lib/libc.a(lib_a-strtol.o)
 .debug_pubtypes
                0x000000000000260a      0x124 /usr/local/ps3dev/ppu/lib/gcc/powerpc64-ps3-elf/4.5.2/../../../../powerpc64-ps3-elf/lib/libc.a(lib_a-strtoull_r.o)
 .debug_pubtypes
                0x000000000000272e      0x124 /usr/local/ps3dev/ppu/lib/gcc/powerpc64-ps3-elf/4.5.2/../../../../powerpc64-ps3-elf/lib/libc.a(lib_a-strtoul.o)
 .debug_pubtypes
                0x0000000000002852      0x18f /usr/local/ps3dev/ppu/lib/gcc/powerpc64-ps3-elf/4.5.2/../../../../powerpc64-ps3-elf/lib/libc.a(lib_a-svfiscanf.o)
 .debug_pubtypes
                0x00000000000029e1      0x1b2 /usr/local/ps3dev/ppu/lib/gcc/powerpc64-ps3-elf/4.5.2/../../../../powerpc64-ps3-elf/lib/libc.a(lib_a-svfprintf.o)
 .debug_pubtypes
                0x0000000000002b93      0x138 /usr/local/ps3dev/ppu/lib/gcc/powerpc64-ps3-elf/4.5.2/../../../../powerpc64-ps3-elf/lib/libc.a(lib_a-ungetc.o)
 .debug_pubtypes
                0x0000000000002ccb      0x12d /usr/local/ps3dev/ppu/lib/gcc/powerpc64-ps3-elf/4.5.2/../../../../powerpc64-ps3-elf/lib/libc.a(lib_a-wsetup.o)
 .debug_pubtypes
                0x0000000000002df8      0x150 /usr/local/ps3dev/ppu/lib/gcc/powerpc64-ps3-elf/4.5.2/../../../../powerpc64-ps3-elf/lib/libc.a(lib_a-dtoa.o)
 .debug_pubtypes
                0x0000000000002f48      0x12d /usr/local/ps3dev/ppu/lib/gcc/powerpc64-ps3-elf/4.5.2/../../../../powerpc64-ps3-elf/lib/libc.a(lib_a-fclose.o)
 .debug_pubtypes
                0x0000000000003075      0x12d /usr/local/ps3dev/ppu/lib/gcc/powerpc64-ps3-elf/4.5.2/../../../../powerpc64-ps3-elf/lib/libc.a(lib_a-fflush.o)
 .debug_pubtypes
                0x00000000000031a2      0x162 /usr/local/ps3dev/ppu/lib/gcc/powerpc64-ps3-elf/4.5.2/../../../../powerpc64-ps3-elf/lib/libc.a(lib_a-gdtoa-gethex.o)
 .debug_pubtypes
                0x0000000000003304       0x2e /usr/local/ps3dev/ppu/lib/gcc/powerpc64-ps3-elf/4.5.2/../../../../powerpc64-ps3-elf/lib/libc.a(lib_a-gdtoa-hexnan.o)
 .debug_pubtypes
                0x0000000000003332       0x7c /usr/local/ps3dev/ppu/lib/gcc/powerpc64-ps3-elf/4.5.2/../../../../powerpc64-ps3-elf/lib/libc.a(lib_a-lock_internal.o)
 .debug_pubtypes
                0x00000000000033ae      0x1c4 /usr/local/ps3dev/ppu/lib/gcc/powerpc64-ps3-elf/4.5.2/../../../../powerpc64-ps3-elf/lib/libc.a(lib_a-makebuf.o)
 .debug_pubtypes
                0x0000000000003572      0x150 /usr/local/ps3dev/ppu/lib/gcc/powerpc64-ps3-elf/4.5.2/../../../../powerpc64-ps3-elf/lib/libc.a(lib_a-mprec.o)
 .debug_pubtypes
                0x00000000000036c2       0x1d /usr/local/ps3dev/ppu/lib/gcc/powerpc64-ps3-elf/4.5.2/../../../../powerpc64-ps3-elf/lib/libc.a(lib_a-strncmp.o)
 .debug_pubtypes
                0x00000000000036df      0x192 /usr/local/ps3dev/ppu/lib/gcc/powerpc64-ps3-elf/4.5.2/../../../../powerpc64-ps3-elf/lib/libc.a(lib_a-svfiprintf.o)
 .debug_pubtypes
                0x0000000000003871       0x12 /usr/local/ps3dev/ppu/lib/gcc/powerpc64-ps3-elf/4.5.2/../../../../powerpc64-ps3-elf/lib/libc.a(lib_a-abort.o)
 .debug_pubtypes
                0x0000000000003883      0x14e /usr/local/ps3dev/ppu/lib/gcc/powerpc64-ps3-elf/4.5.2/../../../../powerpc64-ps3-elf/lib/libc.a(lib_a-callocr.o)
 .debug_pubtypes
                0x00000000000039d1      0x136 /usr/local/ps3dev/ppu/lib/gcc/powerpc64-ps3-elf/4.5.2/../../../../powerpc64-ps3-elf/lib/libc.a(lib_a-signal.o)
 .debug_pubtypes
                0x0000000000003b07      0x2d1 /usr/local/ps3dev/ppu/lib/gcc/powerpc64-ps3-elf/4.5.2/../../../../powerpc64-ps3-elf/lib/libsysbase.a(close.o)
 .debug_pubtypes
                0x0000000000003dd8      0x2d1 /usr/local/ps3dev/ppu/lib/gcc/powerpc64-ps3-elf/4.5.2/../../../../powerpc64-ps3-elf/lib/libsysbase.a(sbrk.o)
 .debug_pubtypes
                0x00000000000040a9      0x2d1 /usr/local/ps3dev/ppu/lib/gcc/powerpc64-ps3-elf/4.5.2/../../../../powerpc64-ps3-elf/lib/libsysbase.a(_exit.o)
 .debug_pubtypes
                0x000000000000437a      0x2d1 /usr/local/ps3dev/ppu/lib/gcc/powerpc64-ps3-elf/4.5.2/../../../../powerpc64-ps3-elf/lib/libsysbase.a(fstat.o)
 .debug_pubtypes
                0x000000000000464b      0x2d1 /usr/local/ps3dev/ppu/lib/gcc/powerpc64-ps3-elf/4.5.2/../../../../powerpc64-ps3-elf/lib/libsysbase.a(isatty.o)
 .debug_pubtypes
                0x000000000000491c      0x2d1 /usr/local/ps3dev/ppu/lib/gcc/powerpc64-ps3-elf/4.5.2/../../../../powerpc64-ps3-elf/lib/libsysbase.a(lseek.o)
 .debug_pubtypes
                0x0000000000004bed      0x2d1 /usr/local/ps3dev/ppu/lib/gcc/powerpc64-ps3-elf/4.5.2/../../../../powerpc64-ps3-elf/lib/libsysbase.a(read.o)
 .debug_pubtypes
                0x0000000000004ebe      0x2d1 /usr/local/ps3dev/ppu/lib/gcc/powerpc64-ps3-elf/4.5.2/../../../../powerpc64-ps3-elf/lib/libsysbase.a(write.o)
 .debug_pubtypes
                0x000000000000518f      0x2d1 /usr/local/ps3dev/ppu/lib/gcc/powerpc64-ps3-elf/4.5.2/../../../../powerpc64-ps3-elf/lib/libsysbase.a(lock.o)
 .debug_pubtypes
                0x0000000000005460      0x2d1 /usr/local/ps3dev/ppu/lib/gcc/powerpc64-ps3-elf/4.5.2/../../../../powerpc64-ps3-elf/lib/libsysbase.a(getpid.o)
 .debug_pubtypes
                0x0000000000005731      0x124 /usr/local/ps3dev/ppu/lib/gcc/powerpc64-ps3-elf/4.5.2/../../../../powerpc64-ps3-elf/lib/libsysbase.a(kill.o)

.debug_ranges   0x0000000000000000     0x1f20
 *(.debug_ranges)
 .debug_ranges  0x0000000000000000       0x30 /usr/local/ps3dev/ppu/lib/gcc/powerpc64-ps3-elf/4.5.2/../../../../powerpc64-ps3-elf/lib/libsysbase.a(sleep.o)
 .debug_ranges  0x0000000000000030       0x20 /usr/local/ps3dev/ppu/lib/gcc/powerpc64-ps3-elf/4.5.2/../../../../powerpc64-ps3-elf/lib/libc.a(lib_a-atexit.o)
 .debug_ranges  0x0000000000000050       0x20 /usr/local/ps3dev/ppu/lib/gcc/powerpc64-ps3-elf/4.5.2/../../../../powerpc64-ps3-elf/lib/libc.a(lib_a-errno.o)
 .debug_ranges  0x0000000000000070       0x20 /usr/local/ps3dev/ppu/lib/gcc/powerpc64-ps3-elf/4.5.2/../../../../powerpc64-ps3-elf/lib/libc.a(lib_a-exit.o)
 .debug_ranges  0x0000000000000090       0x70 /usr/local/ps3dev/ppu/lib/gcc/powerpc64-ps3-elf/4.5.2/../../../../powerpc64-ps3-elf/lib/libc.a(lib_a-getreent.o)
 .debug_ranges  0x0000000000000100       0x20 /usr/local/ps3dev/ppu/lib/gcc/powerpc64-ps3-elf/4.5.2/../../../../powerpc64-ps3-elf/lib/libc.a(lib_a-malign.o)
 .debug_ranges  0x0000000000000120       0x20 /usr/local/ps3dev/ppu/lib/gcc/powerpc64-ps3-elf/4.5.2/../../../../powerpc64-ps3-elf/lib/libc.a(lib_a-malignr.o)
 .debug_ranges  0x0000000000000140       0x30 /usr/local/ps3dev/ppu/lib/gcc/powerpc64-ps3-elf/4.5.2/../../../../powerpc64-ps3-elf/lib/libc.a(lib_a-malloc.o)
 .debug_ranges  0x0000000000000170       0xc0 /usr/local/ps3dev/ppu/lib/gcc/powerpc64-ps3-elf/4.5.2/../../../../powerpc64-ps3-elf/lib/libc.a(lib_a-mallocr.o)
 .debug_ranges  0x0000000000000230       0x20 /usr/local/ps3dev/ppu/lib/gcc/powerpc64-ps3-elf/4.5.2/../../../../powerpc64-ps3-elf/lib/libc.a(lib_a-memset.o)
 .debug_ranges  0x0000000000000250       0x30 /usr/local/ps3dev/ppu/lib/gcc/powerpc64-ps3-elf/4.5.2/../../../../powerpc64-ps3-elf/lib/libc.a(lib_a-mlock.o)
 .debug_ranges  0x0000000000000280       0x30 /usr/local/ps3dev/ppu/lib/gcc/powerpc64-ps3-elf/4.5.2/../../../../powerpc64-ps3-elf/lib/libc.a(lib_a-puts.o)
 .debug_ranges  0x00000000000002b0       0x30 /usr/local/ps3dev/ppu/lib/gcc/powerpc64-ps3-elf/4.5.2/../../../../powerpc64-ps3-elf/lib/libc.a(lib_a-sscanf.o)
 .debug_ranges  0x00000000000002e0       0x60 /usr/local/ps3dev/ppu/lib/gcc/powerpc64-ps3-elf/4.5.2/../../../../powerpc64-ps3-elf/lib/libc.a(lib_a-stdio.o)
 .debug_ranges  0x0000000000000340       0x50 /usr/local/ps3dev/ppu/lib/gcc/powerpc64-ps3-elf/4.5.2/../../../../powerpc64-ps3-elf/lib/libc.a(lib_a-strcasecmp.o)
 .debug_ranges  0x0000000000000390       0x20 /usr/local/ps3dev/ppu/lib/gcc/powerpc64-ps3-elf/4.5.2/../../../../powerpc64-ps3-elf/lib/libc.a(lib_a-strlen.o)
 .debug_ranges  0x00000000000003b0       0x20 /usr/local/ps3dev/ppu/lib/gcc/powerpc64-ps3-elf/4.5.2/../../../../powerpc64-ps3-elf/lib/libc.a(lib_a-strncpy.o)
 .debug_ranges  0x00000000000003d0      0x2e0 /usr/local/ps3dev/ppu/lib/gcc/powerpc64-ps3-elf/4.5.2/../../../../powerpc64-ps3-elf/lib/libc.a(lib_a-svfscanf.o)
 .debug_ranges  0x00000000000006b0       0x20 /usr/local/ps3dev/ppu/lib/gcc/powerpc64-ps3-elf/4.5.2/../../../../powerpc64-ps3-elf/lib/libc.a(lib_a-__atexit.o)
 .debug_ranges  0x00000000000006d0       0x70 /usr/local/ps3dev/ppu/lib/gcc/powerpc64-ps3-elf/4.5.2/../../../../powerpc64-ps3-elf/lib/libc.a(lib_a-__call_atexit.o)
 .debug_ranges  0x0000000000000740      0x130 /usr/local/ps3dev/ppu/lib/gcc/powerpc64-ps3-elf/4.5.2/../../../../powerpc64-ps3-elf/lib/libc.a(lib_a-findfp.o)
 .debug_ranges  0x0000000000000870       0x30 /usr/local/ps3dev/ppu/lib/gcc/powerpc64-ps3-elf/4.5.2/../../../../powerpc64-ps3-elf/lib/libc.a(lib_a-freer.o)
 .debug_ranges  0x00000000000008a0       0x60 /usr/local/ps3dev/ppu/lib/gcc/powerpc64-ps3-elf/4.5.2/../../../../powerpc64-ps3-elf/lib/libc.a(lib_a-fvwrite.o)
 .debug_ranges  0x0000000000000900       0xf0 /usr/local/ps3dev/ppu/lib/gcc/powerpc64-ps3-elf/4.5.2/../../../../powerpc64-ps3-elf/lib/libc.a(lib_a-fwalk.o)
 .debug_ranges  0x00000000000009f0       0x20 /usr/local/ps3dev/ppu/lib/gcc/powerpc64-ps3-elf/4.5.2/../../../../powerpc64-ps3-elf/lib/libc.a(lib_a-iswspace.o)
 .debug_ranges  0x0000000000000a10       0x90 /usr/local/ps3dev/ppu/lib/gcc/powerpc64-ps3-elf/4.5.2/../../../../powerpc64-ps3-elf/lib/libc.a(lib_a-locale.o)
 .debug_ranges  0x0000000000000aa0       0x60 /usr/local/ps3dev/ppu/lib/gcc/powerpc64-ps3-elf/4.5.2/../../../../powerpc64-ps3-elf/lib/libc.a(lib_a-lock_recursive.o)
 .debug_ranges  0x0000000000000b00       0x30 /usr/local/ps3dev/ppu/lib/gcc/powerpc64-ps3-elf/4.5.2/../../../../powerpc64-ps3-elf/lib/libc.a(lib_a-mbrtowc.o)
 .debug_ranges  0x0000000000000b30       0x30 /usr/local/ps3dev/ppu/lib/gcc/powerpc64-ps3-elf/4.5.2/../../../../powerpc64-ps3-elf/lib/libc.a(lib_a-mbtowc_r.o)
 .debug_ranges  0x0000000000000b60       0x20 /usr/local/ps3dev/ppu/lib/gcc/powerpc64-ps3-elf/4.5.2/../../../../powerpc64-ps3-elf/lib/libc.a(lib_a-memchr.o)
 .debug_ranges  0x0000000000000b80       0x20 /usr/local/ps3dev/ppu/lib/gcc/powerpc64-ps3-elf/4.5.2/../../../../powerpc64-ps3-elf/lib/libc.a(lib_a-memcpy.o)
 .debug_ranges  0x0000000000000ba0       0x20 /usr/local/ps3dev/ppu/lib/gcc/powerpc64-ps3-elf/4.5.2/../../../../powerpc64-ps3-elf/lib/libc.a(lib_a-memmove.o)
 .debug_ranges  0x0000000000000bc0      0x1d0 /usr/local/ps3dev/ppu/lib/gcc/powerpc64-ps3-elf/4.5.2/../../../../powerpc64-ps3-elf/lib/libc.a(lib_a-reallocr.o)
 .debug_ranges  0x0000000000000d90       0x20 /usr/local/ps3dev/ppu/lib/gcc/powerpc64-ps3-elf/4.5.2/../../../../powerpc64-ps3-elf/lib/libc.a(lib_a-sccl.o)
 .debug_ranges  0x0000000000000db0       0x20 /usr/local/ps3dev/ppu/lib/gcc/powerpc64-ps3-elf/4.5.2/../../../../powerpc64-ps3-elf/lib/libc.a(lib_a-sf_nan.o)
 .debug_ranges  0x0000000000000dd0       0x50 /usr/local/ps3dev/ppu/lib/gcc/powerpc64-ps3-elf/4.5.2/../../../../powerpc64-ps3-elf/lib/libc.a(lib_a-s_fpclassify.o)
 .debug_ranges  0x0000000000000e20       0x30 /usr/local/ps3dev/ppu/lib/gcc/powerpc64-ps3-elf/4.5.2/../../../../powerpc64-ps3-elf/lib/libc.a(lib_a-sprintf.o)
 .debug_ranges  0x0000000000000e50       0x20 /usr/local/ps3dev/ppu/lib/gcc/powerpc64-ps3-elf/4.5.2/../../../../powerpc64-ps3-elf/lib/libc.a(lib_a-strcmp.o)
 .debug_ranges  0x0000000000000e70      0x110 /usr/local/ps3dev/ppu/lib/gcc/powerpc64-ps3-elf/4.5.2/../../../../powerpc64-ps3-elf/lib/libc.a(lib_a-strtod.o)
 .debug_ranges  0x0000000000000f80       0x20 /usr/local/ps3dev/ppu/lib/gcc/powerpc64-ps3-elf/4.5.2/../../../../powerpc64-ps3-elf/lib/libc.a(lib_a-strtoll_r.o)
 .debug_ranges  0x0000000000000fa0       0x30 /usr/local/ps3dev/ppu/lib/gcc/powerpc64-ps3-elf/4.5.2/../../../../powerpc64-ps3-elf/lib/libc.a(lib_a-strtol.o)
 .debug_ranges  0x0000000000000fd0       0x20 /usr/local/ps3dev/ppu/lib/gcc/powerpc64-ps3-elf/4.5.2/../../../../powerpc64-ps3-elf/lib/libc.a(lib_a-strtoull_r.o)
 .debug_ranges  0x0000000000000ff0       0x30 /usr/local/ps3dev/ppu/lib/gcc/powerpc64-ps3-elf/4.5.2/../../../../powerpc64-ps3-elf/lib/libc.a(lib_a-strtoul.o)
 .debug_ranges  0x0000000000001020      0x250 /usr/local/ps3dev/ppu/lib/gcc/powerpc64-ps3-elf/4.5.2/../../../../powerpc64-ps3-elf/lib/libc.a(lib_a-svfiscanf.o)
 .debug_ranges  0x0000000000001270      0x450 /usr/local/ps3dev/ppu/lib/gcc/powerpc64-ps3-elf/4.5.2/../../../../powerpc64-ps3-elf/lib/libc.a(lib_a-svfprintf.o)
 .debug_ranges  0x00000000000016c0       0x40 /usr/local/ps3dev/ppu/lib/gcc/powerpc64-ps3-elf/4.5.2/../../../../powerpc64-ps3-elf/lib/libc.a(lib_a-ungetc.o)
 .debug_ranges  0x0000000000001700       0x20 /usr/local/ps3dev/ppu/lib/gcc/powerpc64-ps3-elf/4.5.2/../../../../powerpc64-ps3-elf/lib/libc.a(lib_a-wsetup.o)
 .debug_ranges  0x0000000000001720       0x30 /usr/local/ps3dev/ppu/lib/gcc/powerpc64-ps3-elf/4.5.2/../../../../powerpc64-ps3-elf/lib/libc.a(lib_a-dtoa.o)
 .debug_ranges  0x0000000000001750       0x30 /usr/local/ps3dev/ppu/lib/gcc/powerpc64-ps3-elf/4.5.2/../../../../powerpc64-ps3-elf/lib/libc.a(lib_a-fclose.o)
 .debug_ranges  0x0000000000001780       0xa0 /usr/local/ps3dev/ppu/lib/gcc/powerpc64-ps3-elf/4.5.2/../../../../powerpc64-ps3-elf/lib/libc.a(lib_a-fflush.o)
 .debug_ranges  0x0000000000001820      0x120 /usr/local/ps3dev/ppu/lib/gcc/powerpc64-ps3-elf/4.5.2/../../../../powerpc64-ps3-elf/lib/libc.a(lib_a-gdtoa-gethex.o)
 .debug_ranges  0x0000000000001940       0x20 /usr/local/ps3dev/ppu/lib/gcc/powerpc64-ps3-elf/4.5.2/../../../../powerpc64-ps3-elf/lib/libc.a(lib_a-gdtoa-hexnan.o)
 .debug_ranges  0x0000000000001960       0x30 /usr/local/ps3dev/ppu/lib/gcc/powerpc64-ps3-elf/4.5.2/../../../../powerpc64-ps3-elf/lib/libc.a(lib_a-lock_internal.o)
 .debug_ranges  0x0000000000001990       0x20 /usr/local/ps3dev/ppu/lib/gcc/powerpc64-ps3-elf/4.5.2/../../../../powerpc64-ps3-elf/lib/libc.a(lib_a-makebuf.o)
 .debug_ranges  0x00000000000019b0      0x1f0 /usr/local/ps3dev/ppu/lib/gcc/powerpc64-ps3-elf/4.5.2/../../../../powerpc64-ps3-elf/lib/libc.a(lib_a-mprec.o)
 .debug_ranges  0x0000000000001ba0       0x20 /usr/local/ps3dev/ppu/lib/gcc/powerpc64-ps3-elf/4.5.2/../../../../powerpc64-ps3-elf/lib/libc.a(lib_a-strncmp.o)
 .debug_ranges  0x0000000000001bc0       0xc0 /usr/local/ps3dev/ppu/lib/gcc/powerpc64-ps3-elf/4.5.2/../../../../powerpc64-ps3-elf/lib/libc.a(lib_a-svfiprintf.o)
 .debug_ranges  0x0000000000001c80       0x20 /usr/local/ps3dev/ppu/lib/gcc/powerpc64-ps3-elf/4.5.2/../../../../powerpc64-ps3-elf/lib/libc.a(lib_a-abort.o)
 .debug_ranges  0x0000000000001ca0       0x50 /usr/local/ps3dev/ppu/lib/gcc/powerpc64-ps3-elf/4.5.2/../../../../powerpc64-ps3-elf/lib/libc.a(lib_a-callocr.o)
 .debug_ranges  0x0000000000001cf0       0x90 /usr/local/ps3dev/ppu/lib/gcc/powerpc64-ps3-elf/4.5.2/../../../../powerpc64-ps3-elf/lib/libc.a(lib_a-signal.o)
 .debug_ranges  0x0000000000001d80       0x20 /usr/local/ps3dev/ppu/lib/gcc/powerpc64-ps3-elf/4.5.2/../../../../powerpc64-ps3-elf/lib/libsysbase.a(close.o)
 .debug_ranges  0x0000000000001da0       0x20 /usr/local/ps3dev/ppu/lib/gcc/powerpc64-ps3-elf/4.5.2/../../../../powerpc64-ps3-elf/lib/libsysbase.a(sbrk.o)
 .debug_ranges  0x0000000000001dc0       0x20 /usr/local/ps3dev/ppu/lib/gcc/powerpc64-ps3-elf/4.5.2/../../../../powerpc64-ps3-elf/lib/libsysbase.a(_exit.o)
 .debug_ranges  0x0000000000001de0       0x20 /usr/local/ps3dev/ppu/lib/gcc/powerpc64-ps3-elf/4.5.2/../../../../powerpc64-ps3-elf/lib/libsysbase.a(fstat.o)
 .debug_ranges  0x0000000000001e00       0x20 /usr/local/ps3dev/ppu/lib/gcc/powerpc64-ps3-elf/4.5.2/../../../../powerpc64-ps3-elf/lib/libsysbase.a(isatty.o)
 .debug_ranges  0x0000000000001e20       0x20 /usr/local/ps3dev/ppu/lib/gcc/powerpc64-ps3-elf/4.5.2/../../../../powerpc64-ps3-elf/lib/libsysbase.a(lseek.o)
 .debug_ranges  0x0000000000001e40       0x20 /usr/local/ps3dev/ppu/lib/gcc/powerpc64-ps3-elf/4.5.2/../../../../powerpc64-ps3-elf/lib/libsysbase.a(read.o)
 .debug_ranges  0x0000000000001e60       0x20 /usr/local/ps3dev/ppu/lib/gcc/powerpc64-ps3-elf/4.5.2/../../../../powerpc64-ps3-elf/lib/libsysbase.a(write.o)
 .debug_ranges  0x0000000000001e80       0x60 /usr/local/ps3dev/ppu/lib/gcc/powerpc64-ps3-elf/4.5.2/../../../../powerpc64-ps3-elf/lib/libsysbase.a(lock.o)
 .debug_ranges  0x0000000000001ee0       0x20 /usr/local/ps3dev/ppu/lib/gcc/powerpc64-ps3-elf/4.5.2/../../../../powerpc64-ps3-elf/lib/libsysbase.a(getpid.o)
 .debug_ranges  0x0000000000001f00       0x20 /usr/local/ps3dev/ppu/lib/gcc/powerpc64-ps3-elf/4.5.2/../../../../powerpc64-ps3-elf/lib/libsysbase.a(kill.o)

.gnu.attributes
 *(.gnu.attributes)

/DISCARD/
 *(.note.GNU-stack)
 *(.gnu_debuglink)
LOAD /usr/local/ps3dev/ppu/lib/gcc/powerpc64-ps3-elf/4.5.2/../../../../powerpc64-ps3-elf/lib/lv2-crti.o
LOAD /usr/local/ps3dev/ppu/lib/gcc/powerpc64-ps3-elf/4.5.2/crtbegin.o
LOAD /usr/local/ps3dev/ppu/lib/gcc/powerpc64-ps3-elf/4.5.2/../../../../powerpc64-ps3-elf/lib/lv2-crt0.o
LOAD /usr/local/ps3dev/ppu/lib/gcc/powerpc64-ps3-elf/4.5.2/../../../../powerpc64-ps3-elf/lib/lv2-sprx.o
LOAD main.o
LOAD rsxutil.o
LOAD /usr/local/ps3dev/libpsl1ght/ppu/lib/librsx.a
LOAD /usr/local/ps3dev/libpsl1ght/ppu/lib/libgcm_sys.a
LOAD /usr/local/ps3dev/libpsl1ght/ppu/lib/libio.a
LOAD /usr/local/ps3dev/libpsl1ght/ppu/lib/libsysutil.a
LOAD /usr/local/ps3dev/libpsl1ght/ppu/lib/librt.a
LOAD /usr/local/ps3dev/libpsl1ght/ppu/lib/liblv2.a
LOAD /usr/local/ps3dev/ppu/lib/gcc/powerpc64-ps3-elf/4.5.2/../../../../powerpc64-ps3-elf/lib/libm.a
LOAD /usr/local/ps3dev/ppu/lib/gcc/powerpc64-ps3-elf/4.5.2/libgcc.a
START GROUP
LOAD /usr/local/ps3dev/ppu/lib/gcc/powerpc64-ps3-elf/4.5.2/../../../../powerpc64-ps3-elf/lib/libsysbase.a
LOAD /usr/local/ps3dev/ppu/lib/gcc/powerpc64-ps3-elf/4.5.2/../../../../powerpc64-ps3-elf/lib/libc.a
LOAD /usr/local/ps3dev/libpsl1ght/ppu/lib/librt.a
LOAD /usr/local/ps3dev/libpsl1ght/ppu/lib/liblv2.a
END GROUP
LOAD /usr/local/ps3dev/ppu/lib/gcc/powerpc64-ps3-elf/4.5.2/libgcc.a
LOAD /usr/local/ps3dev/ppu/lib/gcc/powerpc64-ps3-elf/4.5.2/crtend.o
LOAD /usr/local/ps3dev/ppu/lib/gcc/powerpc64-ps3-elf/4.5.2/../../../../powerpc64-ps3-elf/lib/lv2-crtn.o
OUTPUT(/home/nome/ps3dev/projects/first_program/first_program.elf elf64-powerpc)
